ccollections
defaultdict
p1
(c__builtin__
list
p2
tRp3
S'CTTCTT'
p4
(lp5
I1975
asS'CACCCT'
p6
(lp7
I3993
aI5023
asS'GAACGG'
p8
(lp9
I1658
aI3114
aI8868
aI9519
asS'GAACGA'
p10
(lp11
I827
aI1117
aI3257
aI5542
aI7082
asS'CAACAT'
p12
(lp13
I4266
asS'CACCCA'
p14
(lp15
I2553
asS'CTTCTA'
p16
(lp17
I2923
aI7963
asS'CACCCC'
p18
(lp19
I1244
aI1481
aI5534
asS'CTTCTC'
p20
(lp21
I4382
aI4841
aI6772
aI7868
asS'CACCCG'
p22
(lp23
I1517
aI1787
aI2378
asS'CTTCTG'
p24
(lp25
I6724
asS'CATTAG'
p26
(lp27
I3273
aI4550
aI6359
asS'TAAGGT'
p28
(lp29
I4152
asS'TGAGTG'
p30
(lp31
I6205
asS'CGTGTA'
p32
(lp33
I1017
asS'TAAGGG'
p34
(lp35
I4683
asS'CTCGCG'
p36
(lp37
I8697
aI9470
asS'CGTGTT'
p38
(lp39
I749
asS'TAAGGC'
p40
(lp41
I3198
aI8307
asS'TAAGGA'
p42
(lp43
I1699
aI2325
asS'TCACTG'
p44
(lp45
I2242
aI4627
aI5052
aI8508
aI9736
asS'GTCAAA'
p46
(lp47
I4284
aI8584
asS'AGGGAT'
p48
(lp49
I4685
aI6150
aI7482
asS'CTGTCC'
p50
(lp51
I3152
aI6805
asS'TCAGAG'
p52
(lp53
I5925
asS'CTGTCA'
p54
(lp55
I1028
aI9733
asS'CTGTCG'
p56
(lp57
I30
aI2969
aI3947
aI9716
asS'TCAGAC'
p58
(lp59
I4544
aI9029
asS'TCAGAA'
p60
(lp61
I51
aI625
aI996
aI2385
aI4227
aI4443
asS'GTCAAT'
p62
(lp63
I2169
aI5152
aI9360
asS'GTATCA'
p64
(lp65
I719
aI3437
aI5019
aI9774
asS'TCAGAT'
p66
(lp67
I4386
aI4845
aI6776
aI7872
asS'GTATCG'
p68
(lp69
I4164
aI5776
aI7141
aI8056
aI9781
asS'CTGTCT'
p70
(lp71
I3918
aI7132
aI7212
aI9991
asS'GGTGTC'
p72
(lp73
I3693
aI9507
asS'GGTGTA'
p74
(lp75
I467
aI1695
aI4413
aI7684
aI8100
asS'GGTGTG'
p76
(lp77
I5358
aI7954
aI9178
asS'TTCTGT'
p78
(lp79
I9714
asS'GTATTG'
p80
(lp81
I8162
asS'CCGGGC'
p82
(lp83
I1448
aI7179
aI8793
asS'CCGGGA'
p84
(lp85
I1728
aI6345
aI7489
asS'TATCCA'
p86
(lp87
I1671
aI7003
asS'TATCCC'
p88
(lp89
I2146
aI7244
asS'TGGTTG'
p90
(lp91
I4391
aI4850
aI6781
aI7877
aI9072
asS'TATCCG'
p92
(lp93
I3226
aI4570
asS'GGTGTT'
p94
(lp95
I3026
aI4932
aI7750
aI7795
asS'ATTCCG'
p96
(lp97
I7895
asS'TTCTGG'
p98
(lp99
I1398
aI5214
asS'CCGGGT'
p100
(lp101
I778
asS'ATTCCC'
p102
(lp103
I4689
aI9581
asS'TTCTGC'
p104
(lp105
I423
aI1329
aI7615
aI8189
asS'ATTCCA'
p106
(lp107
I1287
aI3556
aI3666
aI6246
asS'CGTAAC'
p108
(lp109
I2807
aI3422
asS'TGCACT'
p110
(lp111
I327
aI5478
aI7335
aI8577
asS'CGTCAT'
p112
(lp113
I9474
asS'TGAACT'
p114
(lp115
I5348
aI5709
asS'GTTCTC'
p116
(lp117
I2786
aI8829
asS'AGGGAG'
p118
(lp119
I7679
aI9003
aI9702
asS'ACGAAC'
p120
(lp121
I7517
asS'CGCGGG'
p122
(lp123
I4173
aI8699
aI8756
aI9326
asS'CGCGGC'
p124
(lp125
I445
aI1932
aI7592
aI9100
asS'CGCGGA'
p126
(lp127
I1091
aI4127
aI5119
aI8534
aI8895
asS'ACCTGT'
p128
(lp129
I727
aI1281
aI4733
aI9211
asS'TCATGT'
p130
(lp131
I1384
asS'CTCCGA'
p132
(lp133
I2294
aI9345
asS'TTACAG'
p134
(lp135
I169
aI3477
aI5228
aI6963
aI7382
aI7630
asS'CTCCGC'
p136
(lp137
I1365
aI2775
aI6263
asS'TTACAA'
p138
(lp139
I3139
aI4335
aI5039
aI5309
asS'TTACAC'
p140
(lp141
I9980
asS'CTCCGG'
p142
(lp143
I6343
asS'TCATGC'
p144
(lp145
I2033
aI5030
aI8444
aI8485
asS'ACCTGG'
p146
(lp147
I1962
aI5243
asS'TCATGA'
p148
(lp149
I2009
aI5106
aI8038
aI8750
aI9535
asS'TCATGG'
p150
(lp151
I2285
aI9069
asS'ACCTGC'
p152
(lp153
I3245
aI5068
aI7525
asS'ACCTGA'
p154
(lp155
I284
aI2655
aI8787
asS'TTACAT'
p156
(lp157
I904
aI4954
aI5582
asS'CTCCGT'
p158
(lp159
I237
aI1044
aI1180
aI1800
aI3414
aI4061
aI6132
aI9114
asS'GCCTGA'
p160
(lp161
I9036
asS'GCCTGC'
p162
(lp163
I953
asS'TAAAGG'
p164
(lp165
I3046
aI9000
asS'CAAATT'
p166
(lp167
I2831
asS'TAAAGA'
p168
(lp169
I2980
aI4196
aI9417
aI9681
asS'GCATAA'
p170
(lp171
I2977
aI4343
aI7572
asS'TAAAGC'
p172
(lp173
I1037
aI1706
aI3348
aI3826
aI4346
aI5398
aI7967
asS'GCCTGT'
p174
(lp175
I3150
aI7038
asS'TATCTA'
p176
(lp177
I4793
aI6916
aI8877
aI9697
asS'TAAAGT'
p178
(lp179
I979
asS'CAAATA'
p180
(lp181
I3335
aI3358
aI3405
aI4022
aI6386
aI6501
aI7301
asS'CAAATC'
p182
(lp183
I536
aI1760
asS'CAAATG'
p184
(lp185
I4286
asS'AATACT'
p186
(lp187
I2172
aI6169
asS'TATCTC'
p188
(lp189
I754
aI2947
aI4598
aI9273
asS'CGTCAA'
p190
(lp191
I5151
aI8583
aI9359
asS'TGGTTC'
p192
(lp193
I8843
asS'GGCATA'
p194
(lp195
I5552
asS'GGCGAC'
p196
(lp197
I8776
asS'AATACG'
p198
(lp199
I3572
asS'AATACA'
p200
(lp201
I894
aI2747
asS'AATACC'
p202
(lp203
I66
aI2002
aI2102
aI2117
aI3360
aI3787
aI8195
asS'GGCATT'
p204
(lp205
I7549
asS'TCCCCA'
p206
(lp207
I2277
aI2790
aI3155
aI4074
aI4674
aI5185
aI5368
asS'CTTGGT'
p208
(lp209
I3343
asS'GAGCAC'
p210
(lp211
I1241
aI1784
aI7541
aI9367
asS'ACTGAT'
p212
(lp213
I2596
aI3563
aI6986
aI9738
asS'GAGCAG'
p214
(lp215
I2963
aI9619
asS'AGTAGT'
p216
(lp217
I1225
aI3039
aI8324
asS'TCTCGC'
p218
(lp219
I949
aI6103
asS'TCTCGA'
p220
(lp221
I4091
aI4859
aI5953
aI8344
aI8831
asS'TCTCGG'
p222
(lp223
I3874
aI8003
aI9043
asS'ACTGAG'
p224
(lp225
I2434
aI4423
aI4455
aI9221
asS'ATACAA'
p226
(lp227
I5417
asS'AGTAGG'
p228
(lp229
I91
aI659
aI938
aI3543
asS'ACTGAA'
p230
(lp231
I1139
aI3111
aI6217
asS'AGCCCG'
p232
(lp233
I1190
aI6295
asS'GGGTCA'
p234
(lp235
I780
aI993
aI1745
aI4511
aI7365
asS'GTGTCG'
p236
(lp237
I3694
aI9508
asS'TCGAAC'
p238
(lp239
I270
aI3400
aI6535
aI9784
asS'TCGAAA'
p240
(lp241
I6955
asS'TCGAAG'
p242
(lp243
I2331
aI3625
aI5955
asS'GTGTCA'
p244
(lp245
I5361
asS'AGACAC'
p246
(lp247
I4399
aI6094
asS'TCGGTC'
p248
(lp249
I4439
asS'GTGTCT'
p250
(lp251
I4045
aI4363
aI4822
aI6409
aI6753
aI7849
aI9595
asS'CATGCC'
p252
(lp253
I5974
aI9893
asS'TCGAAT'
p254
(lp255
I7826
asS'CTTGCG'
p256
(lp257
I1928
asS'CTTGCA'
p258
(lp259
I86
aI3012
aI3642
asS'CTTGCC'
p260
(lp261
I6496
aI9643
asS'CGAAAG'
p262
(lp263
I5251
aI7055
aI7085
aI9056
asS'CGAAAA'
p264
(lp265
I1217
aI5062
aI6956
aI8381
asS'CGAAAC'
p266
(lp267
I1940
aI6450
aI8449
aI9021
asS'AAGGTT'
p268
(lp269
I6677
asS'CACGGA'
p270
(lp271
I2670
aI3016
aI3711
aI7730
asS'AAATGC'
p272
(lp273
I510
asS'CACGGC'
p274
(lp275
I454
aI8135
asS'AAATGG'
p276
(lp277
I1691
aI5278
asS'CACGGG'
p278
(lp279
I2046
asS'ACAGTA'
p280
(lp281
I4254
aI7632
aI9953
asS'TAGAGC'
p282
(lp283
I7539
aI9365
aI9957
asS'ACAGTT'
p284
(lp285
I6965
aI7509
aI7611
asS'AATCAG'
p286
(lp287
I49
aI538
aI6845
aI6928
asS'CACGGT'
p288
(lp289
I4405
aI4929
asS'AAATGT'
p290
(lp291
I4287
aI7806
asS'TTTGTA'
p292
(lp293
I192
aI8169
asS'TTGCCG'
p294
(lp295
I360
aI441
aI679
asS'ATACGT'
p296
(lp297
I5634
aI6907
aI8517
aI9823
asS'TTGCCC'
p298
(lp299
I2680
asS'ACTGCC'
p300
(lp301
I4179
aI6279
asS'TTGCCT'
p302
(lp303
I786
aI8395
asS'TCTAGG'
p304
(lp305
I2856
aI4987
aI7135
aI9699
asS'GGGTAA'
p306
(lp307
I1145
aI1898
asS'TCTAGA'
p308
(lp309
I4795
aI9688
asS'GGGTAG'
p310
(lp311
I1060
aI4082
aI9236
asS'TCTAGC'
p312
(lp313
I9802
asS'ATACGG'
p314
(lp315
I3573
asS'AATTGG'
p316
(lp317
I6791
aI6943
asS'AGATGT'
p318
(lp319
I813
aI3771
aI8183
aI9064
asS'TCGCCC'
p320
(lp321
I1592
aI3380
aI4167
aI5130
aI7585
asS'TCGCCA'
p322
(lp323
I2626
aI3846
asS'TCGCCG'
p324
(lp325
I6105
aI7185
asS'GGTAAT'
p326
(lp327
I1146
asS'ACCCAT'
p328
(lp329
I2305
asS'ACCCAC'
p330
(lp331
I2554
asS'GGTAAC'
p332
(lp333
I35
aI1899
asS'GGTAAA'
p334
(lp335
I3346
aI6605
asS'GGTAAG'
p336
(lp337
I2096
aI9461
asS'TCGCCT'
p338
(lp339
I161
aI951
aI4622
aI8439
aI9639
asS'AGATGC'
p340
(lp341
I5669
asS'CCCCAT'
p342
(lp343
I257
aI1246
aI2080
aI3156
aI4675
aI5186
aI5369
aI5390
asS'TTGGGT'
p344
(lp345
I991
aI1058
aI4034
aI6269
aI6398
aI9234
asS'CACTAG'
p346
(lp347
I329
aI6685
asS'CACTAA'
p348
(lp349
I202
asS'CACTAC'
p350
(lp351
I7337
asS'CCCCAA'
p352
(lp353
I2791
aI2986
asS'CCCCAC'
p354
(lp355
I1514
aI2150
aI9245
asS'CCCCAG'
p356
(lp357
I2278
aI4075
aI6031
aI7375
aI8799
asS'CACTAT'
p358
(lp359
I222
aI3441
aI6913
aI7198
aI8299
asS'CTATCG'
p360
(lp361
I3508
aI4367
aI4826
aI6757
aI7200
aI7853
aI8301
asS'CCGTCC'
p362
(lp363
I6047
aI9402
asS'TTGGGA'
p364
(lp365
I8416
asS'TTGGGC'
p366
(lp367
I4190
aI6338
aI8013
asS'TGCAGA'
p368
(lp369
I1908
aI2650
asS'TTTCTG'
p370
(lp371
I1328
aI5213
aI8188
aI9713
asS'TGCAGC'
p372
(lp373
I956
aI3903
aI5144
asS'TGCCTC'
p374
(lp375
I787
aI2772
aI4524
asS'TTTCTC'
p376
(lp377
I213
aI8342
aI9531
asS'TGCAGG'
p378
(lp379
I3644
aI9123
asS'TAGAGG'
p380
(lp381
I9690
asS'GTATCT'
p382
(lp383
I5826
aI7276
aI8979
aI9272
aI9930
asS'CCCACA'
p384
(lp385
I2151
aI2555
asS'TTTCTT'
p386
(lp387
I156
aI4872
asS'TGCCTT'
p388
(lp389
I4649
aI9846
asS'TGCAGT'
p390
(lp391
I88
aI935
aI3540
asS'TTGGGG'
p392
(lp393
I8733
asS'AAGGAC'
p394
(lp395
I290
asS'TCACAG'
p396
(lp397
I8464
asS'AAGGAG'
p398
(lp399
I244
aI1700
asS'ATATGC'
p400
(lp401
I3338
asS'CTCATT'
p402
(lp403
I2950
aI7699
asS'ATATGA'
p404
(lp405
I6877
asS'GTGAGA'
p406
(lp407
I6786
aI7031
asS'ATATGG'
p408
(lp409
I2689
asS'AAGGAT'
p410
(lp411
I2326
asS'TGGTTT'
p412
(lp413
I8166
asS'ATATGT'
p414
(lp415
I3932
aI3979
aI5304
asS'GGTCCC'
p416
(lp417
I1076
aI1376
aI4672
aI6854
asS'GCCCAG'
p418
(lp419
I1438
aI5132
aI8741
asS'GGTCCA'
p420
(lp421
I1488
aI8295
asS'GCCCAA'
p422
(lp423
I4182
aI4753
aI6282
asS'GGTCCG'
p424
(lp425
I1445
aI4408
asS'AGGTCT'
p426
(lp427
I2859
aI7048
aI7689
asS'TGTGTC'
p428
(lp429
I5360
asS'AGACCC'
p430
(lp431
I1511
aI2983
asS'AGACCA'
p432
(lp433
I2915
aI4546
asS'TCTTGT'
p434
(lp435
I849
aI6704
aI8597
aI9628
asS'CTTCGC'
p436
(lp437
I159
aI9839
asS'CTTAGT'
p438
(lp439
I5492
asS'TCCGGG'
p440
(lp441
I1447
aI6344
asS'ACCACT'
p442
(lp443
I9765
asS'AGGTCG'
p444
(lp445
I925
aI3377
aI4316
aI5162
aI7171
aI7459
asS'GGTCCT'
p446
(lp447
I2584
aI4433
aI8250
asS'TCCGGA'
p448
(lp449
I3228
asS'CTTAGC'
p450
(lp451
I1475
aI3470
aI4875
aI5944
aI9332
aI9863
asS'TCTTGA'
p452
(lp453
I1540
aI3533
asS'CTTAGA'
p454
(lp455
I3768
aI9882
asS'TCTTGC'
p456
(lp457
I1927
asS'CTTAGG'
p458
(lp459
I4772
asS'ATTGTC'
p460
(lp461
I21
aI5617
asS'ATTGTA'
p462
(lp463
I872
aI8365
asS'GCCTTT'
p464
(lp465
I210
aI4330
aI9847
asS'ATTTTG'
p466
(lp467
I1250
aI2341
aI3985
asS'TCCAGG'
p468
(lp469
I6248
asS'ATTTTA'
p470
(lp471
I2312
aI7552
asS'GAGGTA'
p472
(lp473
I129
aI247
asS'ATTTTC'
p474
(lp475
I2547
aI9711
asS'TCCAGC'
p476
(lp477
I217
aI4533
aI6546
aI7005
asS'TAGCAG'
p478
(lp479
I646
aI8220
aI9334
asS'TAGCAC'
p480
(lp481
I9252
asS'TAGCAA'
p482
(lp483
I3605
aI4468
aI6075
aI9133
asS'TCCAGT'
p484
(lp485
I354
aI5621
asS'ATTTTT'
p486
(lp487
I2834
asS'GCCTTG'
p488
(lp489
I84
aI4650
aI9641
asS'ACAATC'
p490
(lp491
I1923
aI5419
aI6287
asS'GCCTTA'
p492
(lp493
I2894
aI8139
asS'TTGACA'
p494
(lp495
I6164
asS'TAAATG'
p496
(lp497
I509
aI7805
asS'GATACG'
p498
(lp499
I1466
aI2013
aI5818
aI7268
aI8971
aI9922
asS'TAGCAT'
p500
(lp501
I1152
aI3472
aI3600
aI5335
asS'GATACC'
p502
(lp503
I4557
aI7485
aI8910
asS'GATTTC'
p504
(lp505
I2532
aI5102
asS'TGAGCT'
p506
(lp507
I1543
aI1735
aI5431
aI9428
asS'AAGACA'
p508
(lp509
I6093
aI7218
aI7495
aI7674
asS'AAGACC'
p510
(lp511
I1510
aI2982
asS'GTGGGC'
p512
(lp513
I3146
asS'AAGACG'
p514
(lp515
I5254
aI7655
asS'TGAGCG'
p516
(lp517
I2086
aI2345
aI8232
asS'TGAGCA'
p518
(lp519
I1783
aI6369
aI6511
aI6899
aI9538
aI9618
asS'TGAGCC'
p520
(lp521
I593
aI2658
aI3659
aI4750
asS'AAGACT'
p522
(lp523
I390
aI1000
aI7428
asS'CTTCCA'
p524
(lp525
I665
aI8568
asS'GCGGTA'
p526
(lp527
I4744
aI6004
aI7502
asS'GCGGTG'
p528
(lp529
I3691
aI5377
aI6693
aI7060
aI8666
aI9176
asS'CGGTGT'
p530
(lp531
I3025
aI3692
aI4412
aI4931
aI7749
aI7953
aI9177
asS'TCGTTA'
p532
(lp533
I342
aI1841
aI2429
aI2502
aI3886
asS'TCGTTC'
p534
(lp535
I2567
aI8526
asS'ATGTGG'
p536
(lp537
I6662
aI7163
aI9381
asS'ACTTGT'
p538
(lp539
I2421
asS'GCGGTT'
p540
(lp541
I3352
asS'ACTTGC'
p542
(lp543
I3011
aI3641
asS'ACTTGA'
p544
(lp545
I6162
asS'CGGTGG'
p546
(lp547
I838
aI6694
aI9720
asS'ACTTGG'
p548
(lp549
I99
aI1056
aI3967
aI5094
aI6671
aI7322
aI7475
asS'CAGTTA'
p550
(lp551
I541
aI2454
aI4247
asS'CGGTGC'
p552
(lp553
I1661
aI2198
aI5378
aI6056
aI8667
asS'GCCTTC'
p554
(lp555
I8311
asS'TAGACT'
p556
(lp557
I5404
asS'TTCCTC'
p558
(lp559
I1837
aI8920
asS'CTTCCG'
p560
(lp561
I3132
aI3686
aI8313
aI8427
asS'TTCCTG'
p562
(lp563
I1548
aI4495
asS'TCCTTT'
p564
(lp565
I1634
aI1857
aI2129
aI8916
asS'CAGTTG'
p566
(lp567
I4515
asS'TAGACG'
p568
(lp569
I4980
aI9239
asS'TTCCTT'
p570
(lp571
I3395
aI5892
aI8424
aI9860
asS'TAGACC'
p572
(lp573
I3463
asS'TAGACA'
p574
(lp575
I4398
aI9884
asS'CGGGGG'
p576
(lp577
I8701
aI9794
asS'TCCTTG'
p578
(lp579
I8252
aI8680
asS'TCCTTA'
p580
(lp581
I5560
aI5717
aI5893
aI9861
asS'TCCTTC'
p582
(lp583
I3396
aI4435
aI8425
asS'TCGTTT'
p584
(lp585
I3697
aI3812
aI6438
asS'ACCGTT'
p586
(lp587
I274
aI899
aI9755
asS'TGGCGC'
p588
(lp589
I909
aI7707
asS'TGGCGA'
p590
(lp591
I2839
aI5217
aI9482
asS'TGGCGG'
p592
(lp593
I2288
aI5327
asS'AATGCA'
p594
(lp595
I3538
aI9454
asS'ATCTCG'
p596
(lp597
I7151
asS'ATCTCA'
p598
(lp599
I2374
aI2948
aI3756
aI4599
asS'ATCTCC'
p600
(lp601
I235
aI755
aI1363
aI6042
asS'GGCCAA'
p602
(lp603
I2481
aI8760
asS'ACGGAG'
p604
(lp605
I2671
aI3017
aI3575
aI7731
aI8814
asS'ACCGTG'
p606
(lp607
I747
aI7028
asS'ACCGTA'
p608
(lp609
I3363
aI9984
asS'TGGCGT'
p610
(lp611
I4050
asS'ACCGTC'
p612
(lp613
I621
aI9401
asS'AGATTA'
p614
(lp615
I8889
asS'GGCAGT'
p616
(lp617
I1535
asS'CCATAA'
p618
(lp619
I668
aI3834
asS'CAAAGG'
p620
(lp621
I1072
aI6520
aI8661
aI9136
asS'CCATAC'
p622
(lp623
I2405
aI6315
aI8242
asS'CTAACT'
p624
(lp625
I3008
aI5451
aI6571
aI6711
asS'AGATTC'
p626
(lp627
I5964
aI8409
asS'CAAAGC'
p628
(lp629
I4275
aI4905
asS'CAACGT'
p630
(lp631
I2726
aI4185
aI8763
asS'GGCAGA'
p632
(lp633
I1272
aI3547
aI3971
aI5098
aI5291
aI8082
asS'TAAGTT'
p634
(lp635
I5885
aI7239
aI9613
asS'GGCAGG'
p636
(lp637
I1751
aI3718
aI6850
aI7326
aI7479
aI9295
aI9308
asS'CAACGC'
p638
(lp639
I8531
asS'GCACTA'
p640
(lp641
I221
aI328
aI6684
aI7336
asS'CAACGA'
p642
(lp643
I13
aI1937
aI4756
aI8906
asS'CTAACC'
p644
(lp645
I798
aI2710
aI2826
asS'CCATAT'
p646
(lp647
I615
aI760
aI4790
asS'CTAACG'
p648
(lp649
I834
aI3324
asS'TCCTAT'
p650
(lp651
I5169
asS'GGGGGT'
p652
(lp653
I4080
aI6524
aI6699
aI8735
aI9796
aI9975
asS'TACGCT'
p654
(lp655
I2408
aI5820
aI6920
aI6971
aI7270
aI8973
aI9924
asS'CGATCT'
p656
(lp657
I3754
aI7928
asS'CTCTAG'
p658
(lp659
I2855
asS'CTCTAA'
p660
(lp661
I2715
aI9807
asS'GGGGGG'
p662
(lp663
I2474
aI2475
aI2476
aI2477
aI3725
aI3726
aI3727
aI3728
aI6698
aI8702
aI9795
aI9876
asS'CGATCC'
p664
(lp665
I705
aI1294
aI9014
asS'TACGCC'
p666
(lp667
I698
aI3330
asS'GGGGGC'
p668
(lp669
I2478
aI3369
aI9877
asS'CGATCG'
p670
(lp671
I9512
asS'GGGGGA'
p672
(lp673
I3729
aI6557
aI8703
asS'TACGCG'
p674
(lp675
I1304
aI2527
aI5497
aI8893
asS'CTCTAT'
p676
(lp677
I8154
asS'TTCTGA'
p678
(lp679
I3656
aI6725
aI9745
asS'CAGACC'
p680
(lp681
I2652
aI4545
asS'CAGACA'
p682
(lp683
I1274
asS'CAGACG'
p684
(lp685
I8883
aI9030
asS'CGCTAA'
p686
(lp687
I6922
asS'TAGTTC'
p688
(lp689
I471
aI1588
aI2563
aI4767
aI7645
asS'CAGACT'
p690
(lp691
I172
aI3549
asS'GCTAAG'
p692
(lp693
I58
aI5960
asS'GCTAAC'
p694
(lp695
I833
asS'GCTAAA'
p696
(lp697
I4194
aI5396
aI6923
asS'TGCATT'
p698
(lp699
I437
aI1983
aI5899
asS'GCGAAA'
p700
(lp701
I6449
aI7054
aI8448
asS'AACCCT'
p702
(lp703
I6259
aI8564
asS'AACCCC'
p704
(lp705
I2075
aI3793
aI8071
asS'TGCATG'
p706
(lp707
I4114
aI6623
aI6835
aI9119
asS'TGCATA'
p708
(lp709
I2976
aI8512
aI9076
asS'ATGCAC'
p710
(lp711
I4304
aI7334
asS'TGCATC'
p712
(lp713
I7126
aI8488
asS'AGATTT'
p714
(lp715
I5101
asS'AGTTTG'
p716
(lp717
I357
aI5624
aI7511
aI7945
asS'CTACAC'
p718
(lp719
I1311
aI9207
asS'AACTGA'
p720
(lp721
I1138
aI2595
aI3110
aI4422
aI4454
aI6216
aI6573
aI6985
aI7520
asS'CTACAG'
p722
(lp723
I105
aI2258
aI4585
aI6469
aI8880
asS'CCCAGC'
p724
(lp725
I2279
aI8800
asS'CCCAGG'
p726
(lp727
I1439
aI4076
aI5133
aI5463
aI7376
asS'AACTGT'
p728
(lp729
I1026
asS'AGTTTT'
p730
(lp731
I3188
asS'ACGTAT'
p732
(lp733
I2228
aI9167
asS'CCCAGT'
p734
(lp735
I6032
aI8742
asS'TTGACG'
p736
(lp737
I7514
aI7567
asS'GTTACG'
p738
(lp739
I4915
aI8271
asS'ATACTG'
p740
(lp741
I2173
aI2614
asS'CGCATC'
p742
(lp743
I1887
aI3512
asS'CTTGAA'
p744
(lp745
I3534
aI3744
aI6634
aI8624
asS'ATACTC'
p746
(lp747
I6170
asS'CGCATG'
p748
(lp749
I3584
aI3899
aI6659
aI9891
asS'AGGCCA'
p750
(lp751
I5747
aI7329
asS'ATACTT'
p752
(lp753
I1572
asS'CTATCT'
p754
(lp755
I6915
aI8594
aI9656
asS'GCGCAC'
p756
(lp757
I3679
aI3990
asS'GCTCCG'
p758
(lp759
I1179
aI1799
aI2293
aI3413
aI6131
aI6342
asS'TATTGT'
p760
(lp761
I5704
asS'GCTCCC'
p762
(lp763
I5911
aI7773
aI8283
asS'GCTCCA'
p764
(lp765
I4963
aI6019
asS'CCTACT'
p766
(lp767
I1813
asS'TGTACT'
p768
(lp769
I9182
asS'TTTAGT'
p770
(lp771
I495
aI7554
aI8929
asS'TATTGG'
p772
(lp773
I3702
aI8163
asS'GCTCCT'
p774
(lp775
I1431
aI5167
asS'TATTGC'
p776
(lp777
I2721
aI3894
aI8332
asS'TATTGA'
p778
(lp779
I372
aI1605
asS'TTTAGG'
p780
(lp781
I1637
aI2110
aI2470
aI8611
asS'TGTACG'
p782
(lp783
I194
aI7117
aI8808
asS'CCTACG'
p784
(lp785
I601
aI1302
asS'TGTACA'
p786
(lp787
I1019
aI8952
asS'CCTACA'
p788
(lp789
I2257
aI4584
aI9206
asS'TGTACC'
p790
(lp791
I2618
aI4866
aI5240
aI6198
aI7881
aI8367
asS'CCTACC'
p792
(lp793
I75
aI597
aI9199
aI9752
asS'ACTTCA'
p794
(lp795
I6616
aI8902
asS'TTCGCG'
p796
(lp797
I1615
aI9840
asS'TTCGCA'
p798
(lp799
I3031
aI4039
aI6403
aI6681
aI8820
asS'TTCGCC'
p800
(lp801
I160
aI1591
aI9638
asS'AGTATC'
p802
(lp803
I718
aI5775
aI8055
asS'GACTAA'
p804
(lp805
I1002
aI2708
aI3322
asS'AGTATA'
p806
(lp807
I5843
aI7293
aI8472
aI8996
aI9947
asS'GACTAC'
p808
(lp809
I1309
aI5406
asS'AGTATG'
p810
(lp811
I8932
aI9081
asS'TTTGGC'
p812
(lp813
I2837
asS'TTCGCT'
p814
(lp815
I3519
asS'CTTTTA'
p816
(lp817
I1575
aI4332
aI8927
asS'GACTAT'
p818
(lp819
I174
asS'AGTATT'
p820
(lp821
I8161
aI8540
asS'TTACTC'
p822
(lp823
I9319
asS'TTACTA'
p824
(lp825
I6157
asS'TTACTG'
p826
(lp827
I544
aI2432
aI3387
aI5353
asS'ACCTTG'
p828
(lp829
I3742
asS'ACCTTC'
p830
(lp831
I3268
aI7720
aI8421
aI8504
asS'ACCTTA'
p832
(lp833
I0
aI1555
aI5490
aI5575
aI5936
aI9609
asS'TTACTT'
p834
(lp835
I1324
aI3889
aI4147
aI8205
asS'ACCTTT'
p836
(lp837
I4869
aI8836
aI9528
asS'ACAGGG'
p838
(lp839
I7677
aI8246
asS'CTGGGA'
p840
(lp841
I1318
aI5245
aI8020
aI9550
asS'CTGGGC'
p842
(lp843
I792
aI6860
aI7764
asS'ACAGGC'
p844
(lp845
I6471
aI7498
aI8773
asS'ACAGGA'
p846
(lp847
I107
aI4098
aI4605
aI5230
asS'CTGGGG'
p848
(lp849
I2052
aI2245
aI9769
aI9874
asS'AGGACG'
p850
(lp851
I291
aI3021
aI8105
asS'GCAGCT'
p852
(lp853
I2965
aI5145
asS'CAGGAA'
p854
(lp855
I4606
aI5135
asS'TCGCTT'
p856
(lp857
I3613
aI5865
aI7462
aI8059
asS'AGGACC'
p858
(lp859
I109
aI724
aI9411
asS'AGGACA'
p860
(lp861
I1354
aI9126
asS'GCGCAT'
p862
(lp863
I3898
aI7891
aI9890
aI9961
asS'TTATAC'
p864
(lp865
I4250
aI5632
asS'TTATAA'
p866
(lp867
I1497
asS'CTGGGT'
p868
(lp869
I2176
asS'TTATAG'
p870
(lp871
I1564
aI1585
aI4667
asS'TCGCTG'
p872
(lp873
I2972
aI3520
asS'GCAGCG'
p874
(lp875
I957
aI1893
aI3904
aI9336
asS'TCGCTC'
p876
(lp877
I3870
aI5165
asS'TCGCTA'
p878
(lp879
I3803
aI6466
aI8690
asS'CAGGAT'
p880
(lp881
I5465
asS'CCTCAA'
p882
(lp883
I7418
asS'CCTCAC'
p884
(lp885
I142
aI4625
asS'TATGTT'
p886
(lp887
I2927
aI5305
asS'ATGGGC'
p888
(lp889
I4270
aI7307
asS'TCTTTG'
p890
(lp891
I433
aI8730
asS'TCTTTA'
p892
(lp893
I2764
asS'ATGGGG'
p894
(lp895
I178
aI2909
aI9049
asS'TCTTTC'
p896
(lp897
I3064
aI3516
aI5829
aI7279
aI8982
aI9933
asS'GCTAGA'
p898
(lp899
I5402
aI9431
asS'CCTCAT'
p900
(lp901
I8442
asS'GGGTTA'
p902
(lp903
I5331
aI8269
aI9977
asS'TATGTG'
p904
(lp905
I3933
aI8064
aI8400
asS'TATGTA'
p906
(lp907
I3980
asS'ATGGGT'
p908
(lp909
I2356
asS'TATGTC'
p910
(lp911
I9109
asS'GAAAGA'
p912
(lp913
I44
aI1237
aI2388
aI5252
aI7086
aI7493
aI7653
aI9057
aI9061
asS'CATGAT'
p914
(lp915
I231
aI2010
asS'ATCAAC'
p916
(lp917
I4451
aI7447
asS'GAAAGG'
p918
(lp919
I288
asS'ATCAAA'
p920
(lp921
I5872
asS'GGAGGA'
p922
(lp923
I3019
aI5233
aI7733
asS'ATCAAT'
p924
(lp925
I8945
asS'TCAAAC'
p926
(lp927
I2417
aI5873
aI8585
asS'CATGAC'
p928
(lp929
I3159
aI3586
aI4957
aI8039
aI8751
asS'CATGAA'
p930
(lp931
I4694
aI5107
aI5585
aI6837
asS'GTAGCG'
p932
(lp933
I6645
aI9831
asS'CAAGTT'
p934
(lp935
I3186
aI5920
aI9158
asS'GCGGCT'
p936
(lp937
I446
aI2028
aI2290
aI2396
aI5438
aI6998
aI9101
asS'GCTTTA'
p938
(lp939
I493
aI7529
asS'GCTTTC'
p940
(lp941
I2209
aI9867
asS'AAAGTA'
p942
(lp943
I7781
aI7911
aI8087
asS'GCGGCG'
p944
(lp945
I1200
aI2348
aI2753
aI7593
aI8226
asS'TGCCAG'
p946
(lp947
I5976
asS'GTAGCT'
p948
(lp949
I5989
aI9652
aI9987
asS'TTCTTT'
p950
(lp951
I8729
asS'CAAGTC'
p952
(lp953
I7
aI2794
aI5879
aI7743
asS'GCGGCA'
p954
(lp955
I1933
asS'CAAGTA'
p956
(lp957
I1223
aI1880
aI8322
asS'ATTGCT'
p958
(lp959
I1796
aI6610
asS'GGGGAA'
p960
(lp961
I3094
aI3730
aI3862
aI9576
asS'TAATCG'
p962
(lp963
I7533
asS'GGTCTT'
p964
(lp965
I847
aI1421
aI1770
aI3531
aI6702
aI8872
aI9626
asS'TAATCA'
p966
(lp967
I7445
asS'TAATCC'
p968
(lp969
I1775
aI2274
aI5714
aI7575
asS'GGGTTT'
p970
(lp971
I6433
asS'CGGCCC'
p972
(lp973
I1645
aI9522
asS'AAAATT'
p974
(lp975
I1994
asS'CGGCCG'
p976
(lp977
I6052
aI8006
asS'TCGTGA'
p978
(lp979
I8030
asS'CTTGTA'
p980
(lp981
I9105
asS'GGTCTG'
p982
(lp983
I7049
asS'TAATCT'
p984
(lp985
I6720
asS'AGTTTA'
p986
(lp987
I4611
aI6967
aI8609
asS'TTCAAC'
p988
(lp989
I7607
aI8529
aI8904
asS'GGTCTC'
p990
(lp991
I2860
aI5529
aI6101
aI6821
aI7690
asS'GGTCTA'
p992
(lp993
I1165
aI1957
aI4985
asS'AAAATG'
p994
(lp995
I1690
aI5277
asS'AAAATC'
p996
(lp997
I6843
aI6926
asS'CGGCCT'
p998
(lp999
I1521
aI4328
aI5258
aI8137
aI9034
asS'TCGTCA'
p1000
(lp1001
I772
aI2239
aI5049
aI5150
aI8582
asS'ATCCCT'
p1002
(lp1003
I586
aI1852
asS'TTCAGG'
p1004
(lp1005
I5755
asS'GAACAT'
p1006
(lp1007
I5860
aI6537
asS'TCGTCG'
p1008
(lp1009
I2644
aI5779
aI7621
asS'TGTTTT'
p1010
(lp1011
I3391
aI4934
aI5652
aI7984
asS'GAACAA'
p1012
(lp1013
I2071
aI3402
aI3747
aI9786
asS'AACGGC'
p1014
(lp1015
I3115
aI9520
aI9562
asS'GAACAC'
p1016
(lp1017
I478
aI6667
asS'ATCCCC'
p1018
(lp1019
I2147
aI2276
aI3177
asS'GAACAG'
p1020
(lp1021
I4200
aI8350
asS'TTCAGT'
p1022
(lp1023
I2212
aI9151
asS'AGGCCG'
p1024
(lp1025
I8614
asS'AACGGA'
p1026
(lp1027
I8940
asS'CACCAC'
p1028
(lp1029
I4402
asS'CACCAA'
p1030
(lp1031
I4902
aI8454
aI9558
asS'CACCAG'
p1032
(lp1033
I3035
aI8652
aI9370
asS'TCCGTG'
p1034
(lp1035
I238
aI1410
aI5470
aI7578
aI9115
asS'ATTGCG'
p1036
(lp1037
I2600
aI3895
asS'TCCGTC'
p1038
(lp1039
I3415
aI6808
aI8315
asS'TCCGTA'
p1040
(lp1041
I1045
aI1801
aI4062
aI4572
asS'CGGCGT'
p1042
(lp1043
I2754
aI7594
aI8227
asS'CACCAT'
p1044
(lp1045
I2513
asS'TCCGTT'
p1046
(lp1047
I1181
aI6133
asS'AACATC'
p1048
(lp1049
I1211
aI5861
aI6538
asS'CAGTCG'
p1050
(lp1051
I3855
aI6931
asS'GCACGG'
p1052
(lp1053
I3015
asS'GTCAGA'
p1054
(lp1055
I624
aI995
aI4442
asS'GCACGA'
p1056
(lp1057
I299
aI3165
aI5612
asS'GTCAGG'
p1058
(lp1059
I1747
asS'GCAAGT'
p1060
(lp1061
I3185
aI8321
asS'GCAAGC'
p1062
(lp1063
I2252
aI2608
aI7190
aI7665
asS'GCACGT'
p1064
(lp1065
I4355
aI4814
aI6745
aI7841
aI8336
asS'CAGTCT'
p1066
(lp1067
I1537
aI1971
aI2261
aI2663
aI4029
aI6393
aI7695
asS'GCAAGG'
p1068
(lp1069
I4500
aI6060
aI7560
aI9457
asS'GTCAGT'
p1070
(lp1071
I4359
aI4375
aI4513
aI4818
aI4834
aI6749
aI6765
aI7845
aI7861
asS'GTATAC'
p1072
(lp1073
I132
aI2230
aI5384
aI6007
asS'TTCCGT'
p1074
(lp1075
I8314
asS'ACGGCT'
p1076
(lp1077
I455
aI9563
asS'GTATAG'
p1078
(lp1079
I250
aI9169
asS'CCGGAA'
p1080
(lp1081
I6298
aI7777
aI8261
asS'CCGGAC'
p1082
(lp1083
I3229
aI5915
asS'CCGGAG'
p1084
(lp1085
I2579
aI8051
asS'TATCAT'
p1086
(lp1087
I3081
aI6333
aI9144
asS'TTCCGG'
p1088
(lp1089
I3133
aI7227
asS'TTCCGA'
p1090
(lp1091
I2535
aI3213
aI3484
aI7394
asS'TTCCGC'
p1092
(lp1093
I3687
aI7896
aI8428
asS'GTATAT'
p1094
(lp1095
I1048
aI4640
aI8473
asS'TATCAC'
p1096
(lp1097
I451
aI3438
aI5020
aI8674
asS'CGTCTA'
p1098
(lp1099
I2729
aI3222
asS'TATCAG'
p1100
(lp1101
I720
aI3087
aI4542
aI6993
aI8157
aI8605
aI9775
asS'CCGGAT'
p1102
(lp1103
I857
asS'CTCTTC'
p1104
(lp1105
I9276
asS'TGTTAT'
p1106
(lp1107
I751
aI4519
aI6330
asS'CTCTTA'
p1108
(lp1109
I1494
aI3468
aI4951
aI5206
aI5569
aI8781
aI9316
asS'AGGGCT'
p1110
(lp1111
I2206
aI2222
asS'TACGTA'
p1112
(lp1113
I603
aI2227
aI5635
aI8518
asS'TACGTC'
p1114
(lp1115
I4917
aI6908
asS'TCTGGT'
p1116
(lp1117
I1954
asS'AACAAA'
p1118
(lp1119
I3403
aI7299
aI9787
asS'CGCGAT'
p1120
(lp1121
I574
aI2529
aI7926
aI8495
asS'TACGTG'
p1122
(lp1123
I5509
aI8273
aI9824
asS'TGTTAG'
p1124
(lp1125
I3774
aI4395
aI9494
asS'GGTTTC'
p1126
(lp1127
I6434
asS'CTCGTG'
p1128
(lp1129
I4206
asS'CTCTTT'
p1130
(lp1131
I2763
asS'TGTTAA'
p1132
(lp1133
I6627
asS'TCTGGG'
p1134
(lp1135
I791
aI7763
aI8019
asS'CGCGAC'
p1136
(lp1137
I1306
aI3911
aI9340
asS'TCTGGC'
p1138
(lp1139
I4048
aI5215
aI9305
asS'TACGTT'
p1140
(lp1141
I3458
asS'CGCGAG'
p1142
(lp1143
I921
aI1617
aI5792
aI6829
asS'AGTCGT'
p1144
(lp1145
I3856
aI4705
aI6932
asS'TTACCT'
p1146
(lp1147
I4055
asS'CTCCAT'
p1148
(lp1149
I4474
aI6020
asS'ACTAGA'
p1150
(lp1151
I3312
aI4978
aI6714
asS'TATGCC'
p1152
(lp1153
I4522
asS'TTACCG'
p1154
(lp1155
I5720
asS'CTCCAC'
p1156
(lp1157
I525
aI2667
aI4964
asS'AGTCGG'
p1158
(lp1159
I5341
asS'TTACCC'
p1160
(lp1161
I766
aI8209
asS'CTCCAG'
p1162
(lp1163
I216
asS'TTACCA'
p1164
(lp1165
I3
aI580
aI4787
asS'AGTCGC'
p1166
(lp1167
I3277
aI5128
aI5837
aI6689
aI7287
aI8990
aI9941
asS'AATGCC'
p1168
(lp1169
I7976
asS'GCCTAC'
p1170
(lp1171
I596
aI2256
asS'GCCTAA'
p1172
(lp1173
I163
aI796
asS'GCCTAG'
p1174
(lp1175
I1523
aI6378
aI7790
asS'CCGACA'
p1176
(lp1177
I530
aI2801
aI7396
asS'CCCTGT'
p1178
(lp1179
I3916
aI3945
aI3995
aI6803
aI8200
aI8213
asS'CCGACG'
p1180
(lp1181
I2296
asS'GCCTAT'
p1182
(lp1183
I3506
aI5260
aI6421
aI8397
aI8592
aI9141
asS'ACGCGG'
p1184
(lp1185
I1090
aI8533
aI8755
aI8894
aI9325
asS'TGACGA'
p1186
(lp1187
I4631
aI6274
aI7515
asS'AGGGCA'
p1188
(lp1189
I4018
aI6382
aI8080
asS'CGGTTT'
p1190
(lp1191
I7121
asS'CGCACA'
p1192
(lp1193
I1876
aI3680
asS'ATACAC'
p1194
(lp1195
I895
aI1052
asS'CGCACC'
p1196
(lp1197
I3033
aI3991
asS'GGGTCG'
p1198
(lp1199
I2091
asS'ACTGCT'
p1200
(lp1201
I5054
aI6128
aI7431
asS'TTTGTT'
p1202
(lp1203
I987
aI9492
asS'CGCACG'
p1204
(lp1205
I3164
aI5611
asS'GGGTCC'
p1206
(lp1207
I1444
aI8249
asS'CTCACT'
p1208
(lp1209
I4626
asS'GGGTCT'
p1210
(lp1211
I1420
aI6701
aI9625
asS'ACTGCA'
p1212
(lp1213
I5476
aI8510
aI8575
asS'TTTGTC'
p1214
(lp1215
I3815
aI5626
aI9966
asS'TATCTG'
p1216
(lp1217
I2541
aI9657
asS'CGCACT'
p1218
(lp1219
I6683
asS'ATACAT'
p1220
(lp1221
I228
aI5971
aI6317
asS'ACTGCG'
p1222
(lp1223
I393
aI4123
aI8043
asS'CTCACC'
p1224
(lp1225
I2376
aI2511
aI5532
aI6815
asS'CTCACA'
p1226
(lp1227
I3758
aI3820
aI4925
asS'CTCACG'
p1228
(lp1229
I143
aI4661
aI9322
asS'GTGGGT'
p1230
(lp1231
I4509
aI6431
aI9383
asS'GTGAGG'
p1232
(lp1233
I1351
aI2494
aI7168
asS'GATTTT'
p1234
(lp1235
I2546
asS'TAGTGC'
p1236
(lp1237
I610
aI4646
aI7556
aI9172
asS'GTGAGC'
p1238
(lp1239
I1782
aI6510
aI8231
asS'TAGTGA'
p1240
(lp1241
I5412
aI8173
asS'GCGTCA'
p1242
(lp1243
I5500
aI9473
asS'TCGACG'
p1244
(lp1245
I379
aI567
aI928
asS'TCGACA'
p1246
(lp1247
I4093
asS'TCGACC'
p1248
(lp1249
I8833
asS'GATTTG'
p1250
(lp1251
I5524
aI9231
aI9490
asS'GTGAGT'
p1252
(lp1253
I2782
aI9827
asS'GTGGGG'
p1254
(lp1255
I1742
aI3092
aI3723
aI3860
aI6555
aI6696
asS'GTGGGA'
p1256
(lp1257
I840
asS'GATTTA'
p1258
(lp1259
I577
aI6482
aI6871
asS'TCGACT'
p1260
(lp1261
I4861
asS'TCAAAA'
p1262
(lp1263
I7724
asS'CGAACG'
p1264
(lp1265
I7081
aI9518
asS'CGAACC'
p1266
(lp1267
I71
aI271
aI4580
aI6257
asS'CGAACA'
p1268
(lp1269
I3401
aI6536
aI9785
asS'CTGGTG'
p1270
(lp1271
I5356
asS'CTGGTA'
p1272
(lp1273
I7435
aI9901
asS'CTGGTC'
p1274
(lp1275
I1486
aI1955
aI6099
asS'CTGCAA'
p1276
(lp1277
I4498
aI7670
aI8191
asS'CGAACT'
p1278
(lp1279
I3216
aI6109
aI7518
asS'TTGCAT'
p1280
(lp1281
I436
aI4113
aI6622
aI7125
aI9075
asS'TTGCAG'
p1282
(lp1283
I87
aI1907
aI3643
asS'GAGGGA'
p1284
(lp1285
I2635
aI5856
aI9588
asS'TTGCAC'
p1286
(lp1287
I3013
aI8334
asS'TTGCAA'
p1288
(lp1289
I1987
aI2723
aI6596
asS'ACGTAC'
p1290
(lp1291
I604
aI3327
aI8519
aI8849
asS'GAGGGC'
p1292
(lp1293
I2890
aI8079
asS'TCGCAT'
p1294
(lp1295
I3511
aI6658
aI7233
asS'GTCGTG'
p1296
(lp1297
I2646
aI3857
aI4706
aI7623
aI8029
asS'ATTGTT'
p1298
(lp1299
I5849
aI8826
asS'GTCGTA'
p1300
(lp1301
I5781
asS'GTCGTC'
p1302
(lp1303
I6933
aI7598
asS'CCGTTT'
p1304
(lp1305
I900
aI6134
asS'GAGCAA'
p1306
(lp1307
I2606
aI6370
asS'ATATCG'
p1308
(lp1309
I3610
asS'GTCGTT'
p1310
(lp1311
I3696
asS'TCGCAG'
p1312
(lp1313
I1891
aI3279
aI4040
aI4319
aI5839
aI6291
aI6404
aI7289
aI8992
aI9943
asS'GTGCTC'
p1314
(lp1315
I1413
aI4855
aI8746
asS'TCGCAC'
p1316
(lp1317
I3032
aI6682
asS'CAGCTA'
p1318
(lp1319
I3451
aI7007
aI8655
asS'CCGTTG'
p1320
(lp1321
I1182
aI3495
aI9756
asS'CCGTTA'
p1322
(lp1323
I275
asS'CCGTTC'
p1324
(lp1325
I1395
aI2381
asS'AATGCT'
p1326
(lp1327
I55
aI3410
aI8620
asS'GGTACA'
p1328
(lp1329
I7504
aI9386
aI9903
asS'GGTACC'
p1330
(lp1331
I182
aI3941
aI5933
aI7717
asS'TATTTG'
p1332
(lp1333
I985
asS'CAGGGA'
p1334
(lp1335
I3646
aI7481
aI7678
asS'TATTTC'
p1336
(lp1337
I2992
aI4294
asS'TATTTA'
p1338
(lp1339
I763
aI2108
aI5579
asS'CCCCCT'
p1340
(lp1341
I3795
asS'AATGCG'
p1342
(lp1343
I511
aI2393
aI7401
asS'TTGAGA'
p1344
(lp1345
I4653
asS'GCCGTG'
p1346
(lp1347
I2460
asS'CCCCCC'
p1348
(lp1349
I1011
aI1012
aI2077
aI2078
asS'CCCCCA'
p1350
(lp1351
I2079
aI2149
aI5389
aI8798
asS'TATTTT'
p1352
(lp1353
I2311
aI3984
aI9710
asS'CCCCCG'
p1354
(lp1355
I1013
aI7588
aI7885
aI9281
asS'CTTGAG'
p1356
(lp1357
I1530
aI1541
aI4652
asS'GAAGTA'
p1358
(lp1359
I8538
asS'ATGATA'
p1360
(lp1361
I1464
aI2011
aI6879
aI9677
asS'ATGATC'
p1362
(lp1363
I232
aI2371
asS'TGCAAC'
p1364
(lp1365
I2724
aI5686
asS'TGCAAA'
p1366
(lp1367
I1988
aI8404
asS'TGCAAG'
p1368
(lp1369
I2251
aI4499
aI6059
aI6597
aI7559
aI7671
aI9456
asS'GAAGTG'
p1370
(lp1371
I1195
aI5194
aI6194
aI9435
aI9592
asS'ATGATT'
p1372
(lp1373
I18
aI1581
aI8725
asS'CTTGAT'
p1374
(lp1375
I1666
aI7346
aI8254
asS'CGAATC'
p1376
(lp1377
I7827
asS'TTGAGG'
p1378
(lp1379
I1531
asS'AATCTC'
p1380
(lp1381
I7150
asS'TTGAGC'
p1382
(lp1383
I1542
aI1734
aI2085
aI2344
aI6898
aI9617
asS'TGCAAT'
p1384
(lp1385
I4591
aI8192
asS'GAGAAT'
p1386
(lp1387
I63
aI3074
aI6788
asS'TGTCTT'
p1388
(lp1389
I4491
aI5628
aI9992
asS'AGTAGC'
p1390
(lp1391
I9830
asS'AAGGCC'
p1392
(lp1393
I81
aI3048
aI8308
aI9138
asS'ATAACC'
p1394
(lp1395
I739
aI3836
asS'AAGGCA'
p1396
(lp1397
I3716
asS'ATAACA'
p1398
(lp1399
I4025
aI6389
aI9950
asS'AAGGCG'
p1400
(lp1401
I3126
aI3199
aI4502
aI6062
aI7920
aI8663
asS'ATAACG'
p1402
(lp1403
I670
aI1499
aI5788
aI7388
aI8551
asS'GAGGGT'
p1404
(lp1405
I558
aI4565
asS'TGTCTG'
p1406
(lp1407
I4046
aI6410
asS'GAGAAG'
p1408
(lp1409
I2674
aI5928
aI6146
asS'AGTAGA'
p1410
(lp1411
I5666
aI5995
aI7783
aI9422
aI9955
asS'GAGAAA'
p1412
(lp1413
I9224
asS'TGTCTC'
p1414
(lp1415
I3817
aI9111
aI9968
asS'GAGAAC'
p1416
(lp1417
I691
aI1656
aI3738
aI5540
aI8348
asS'TGTCTA'
p1418
(lp1419
I3919
aI4290
aI4364
aI4823
aI6754
aI7133
aI7213
aI7850
aI9596
asS'TGTGGC'
p1420
(lp1421
I8684
asS'TGTGGA'
p1422
(lp1423
I6037
aI6663
aI7956
asS'TGTGGG'
p1424
(lp1425
I1741
aI6554
aI9382
asS'ATAACT'
p1426
(lp1427
I1136
aI3108
aI4890
asS'ACTGAC'
p1428
(lp1429
I4629
aI6574
aI7521
asS'GTCACG'
p1430
(lp1431
I3779
aI5502
asS'AGGTAT'
p1432
(lp1433
I130
aI248
aI4154
aI9779
asS'ACCAAG'
p1434
(lp1435
I5
aI78
aI136
aI5877
asS'GGTCAG'
p1436
(lp1437
I994
aI1746
aI4441
aI4512
asS'ACCAAA'
p1438
(lp1439
I1070
aI2829
aI2917
aI4903
aI6081
aI7067
asS'ATCATC'
p1440
(lp1441
I9145
asS'CGTGCT'
p1442
(lp1443
I1412
aI9835
asS'GGTCAC'
p1444
(lp1445
I199
aI520
aI3706
asS'GGTCAT'
p1446
(lp1447
I781
aI1382
aI7366
asS'ACCAAT'
p1448
(lp1449
I582
asS'GCCCCT'
p1450
(lp1451
I1594
aI2682
asS'CGTGCG'
p1452
(lp1453
I2462
aI6446
aI8275
asS'CAAACT'
p1454
(lp1455
I638
aI2418
aI2919
aI8572
asS'TTTTGC'
p1456
(lp1457
I1905
aI3986
aI5317
aI5425
asS'TCTTAC'
p1458
(lp1459
I4145
aI4952
aI9317
asS'TTTTGA'
p1460
(lp1461
I1251
aI2342
aI5654
asS'TCTTAA'
p1462
(lp1463
I1772
aI5207
aI5570
aI5642
aI8782
asS'AATTGA'
p1464
(lp1465
I304
aI823
asS'TCTTAG'
p1466
(lp1467
I1474
aI3469
aI4771
aI4874
asS'AATTGC'
p1468
(lp1469
I4111
aI6609
asS'ATTACA'
p1470
(lp1471
I168
aI3476
aI5227
asS'TGGGGT'
p1472
(lp1473
I179
aI1743
aI2246
aI9770
asS'TAGCCC'
p1474
(lp1475
I1436
asS'GATAAT'
p1476
(lp1477
I1159
aI5546
aI6349
aI6718
asS'TAGCCG'
p1478
(lp1479
I2194
aI2458
aI6362
aI6883
asS'AATTGT'
p1480
(lp1481
I5848
aI8825
asS'CGAGAG'
p1482
(lp1483
I2933
aI8236
asS'AATCTT'
p1484
(lp1485
I1925
aI3062
aI4231
aI5421
aI6303
aI6721
asS'TCTTAT'
p1486
(lp1487
I1495
aI5630
aI8874
asS'CGCTCT'
p1488
(lp1489
I3871
aI5202
aI9314
asS'GATAAA'
p1490
(lp1491
I1206
aI7090
aI7146
aI9679
asS'GATAAC'
p1492
(lp1493
I1135
aI5787
aI7387
asS'TAGCCT'
p1494
(lp1495
I6376
asS'TGGGGC'
p1496
(lp1497
I2053
aI9050
asS'GATAAG'
p1498
(lp1499
I2162
aI5591
asS'GATCCT'
p1500
(lp1501
I706
aI5558
aI9749
asS'AAGAAT'
p1502
(lp1503
I46
aI2099
aI2390
aI4943
aI7640
aI7973
asS'CATTTG'
p1504
(lp1505
I9964
asS'AAGAAC'
p1506
(lp1507
I4198
aI5736
asS'GATCCA'
p1508
(lp1509
I6584
aI9015
aI9554
asS'AAGAAA'
p1510
(lp1511
I7109
aI9059
asS'ATGCCA'
p1512
(lp1513
I3567
aI5975
aI9894
asS'AAGAAG'
p1514
(lp1515
I6735
aI7422
aI7425
asS'GATCCG'
p1516
(lp1517
I1295
aI5468
asS'ATGCCG'
p1518
(lp1519
I8258
asS'CAAGGG'
p1520
(lp1521
I2204
aI2220
aI6227
aI7561
asS'CAAGGC'
p1522
(lp1523
I80
aI4501
aI6061
aI7919
asS'AGTCCG'
p1524
(lp1525
I7097
aI7745
asS'GGTTCA'
p1526
(lp1527
I1756
aI3354
aI8844
asS'GGTTCC'
p1528
(lp1529
I2179
aI3482
asS'CAAGGT'
p1530
(lp1531
I4430
aI9458
aI9648
asS'GGTTCG'
p1532
(lp1533
I2359
aI4037
aI6401
aI6679
asS'TAGGCA'
p1534
(lp1535
I2112
aI3545
aI8632
asS'ATTATA'
p1536
(lp1537
I1584
asS'ATTATC'
p1538
(lp1539
I3085
aI4448
aI6425
asS'TAGAAT'
p1540
(lp1541
I1999
aI3205
aI4797
aI5997
asS'ATTATG'
p1542
(lp1543
I4301
asS'AGTCTT'
p1544
(lp1545
I431
aI1472
aI1538
aI1972
aI4030
aI5640
aI6394
asS'TAGAAA'
p1546
(lp1547
I550
aI1599
aI6565
aI8118
asS'ATTATT'
p1548
(lp1549
I2309
aI2845
asS'TAGAAG'
p1550
(lp1551
I3314
aI7785
aI9433
asS'AGTCTA'
p1552
(lp1553
I2335
aI3005
aI3042
aI5881
aI9686
asS'AGTCTC'
p1554
(lp1555
I2664
aI4658
aI7696
aI7999
asS'AGTCTG'
p1556
(lp1557
I1228
aI1721
aI2262
asS'TAACTC'
p1558
(lp1559
I4615
aI4891
aI5728
asS'TAACTA'
p1560
(lp1561
I5452
aI6712
asS'TAACTG'
p1562
(lp1563
I1137
aI3109
aI6572
asS'CTGTTA'
p1564
(lp1565
I8202
asS'ATCTAT'
p1566
(lp1567
I3078
asS'GCCCCG'
p1568
(lp1569
I4169
aI6253
aI8716
asS'TAACTT'
p1570
(lp1571
I1901
aI3009
asS'ATCTAG'
p1572
(lp1573
I4794
aI9698
asS'ATCTAC'
p1574
(lp1575
I6917
aI8878
asS'ATCTAA'
p1576
(lp1577
I7830
asS'CCATGT'
p1578
(lp1579
I1674
aI4476
aI5750
aI7981
aI9379
asS'GCCCCC'
p1580
(lp1581
I7587
aI8797
asS'TGGAGG'
p1582
(lp1583
I1268
aI2443
asS'TGGAGA'
p1584
(lp1585
I119
aI1257
aI4970
aI6794
aI7074
asS'TGGAGC'
p1586
(lp1587
I1401
asS'CCATGC'
p1588
(lp1589
I2879
aI5371
aI5392
aI7332
asS'TCCAGA'
p1590
(lp1591
I3668
aI4802
aI7649
aI9261
asS'CCATGA'
p1592
(lp1593
I3158
aI4693
aI6202
aI7940
asS'GCCCCA'
p1594
(lp1595
I256
aI6030
aI7374
aI9244
asS'TGGAGT'
p1596
(lp1597
I6458
asS'ATTACG'
p1598
(lp1599
I2525
aI8357
aI8891
asS'TCAGTA'
p1600
(lp1601
I4376
aI4835
aI6766
aI7862
aI8159
aI9152
asS'TCAGTC'
p1602
(lp1603
I3854
aI6930
aI7694
asS'CTCTCT'
p1604
(lp1605
I5204
asS'GGGGAT'
p1606
(lp1607
I6558
aI8704
asS'TCAGTG'
p1608
(lp1609
I2213
aI3089
aI4360
aI4819
aI6750
aI7846
asS'CGATAT'
p1610
(lp1611
I416
aI2141
aI2538
aI2942
asS'CTCTCG'
p1612
(lp1613
I948
aI3873
aI4090
aI4858
aI6173
aI8002
aI9042
asS'GGGGAC'
p1614
(lp1615
I2901
aI7820
asS'CTCTCC'
p1616
(lp1617
I4059
asS'TCAGTT'
p1618
(lp1619
I540
aI4514
aI8607
asS'GGGGAG'
p1620
(lp1621
I1717
aI2911
asS'CGATAG'
p1622
(lp1623
I4759
aI8115
asS'CGATAA'
p1624
(lp1625
I1134
aI2161
aI5545
aI7145
asS'TATCAA'
p1626
(lp1627
I4450
asS'GTGTTT'
p1628
(lp1629
I3027
aI4933
asS'GCTACT'
p1630
(lp1631
I3453
aI5447
aI6070
aI6613
aI7019
aI9300
asS'GTGGTT'
p1632
(lp1633
I7626
aI8842
asS'GTGTTC'
p1634
(lp1635
I3295
aI7224
aI7751
aI9816
asS'GTGTTA'
p1636
(lp1637
I750
asS'GTGTTG'
p1638
(lp1639
I7796
aI9188
asS'CGTGCC'
p1640
(lp1641
I263
aI9844
asS'GTGGTA'
p1642
(lp1643
I9722
asS'GCTACA'
p1644
(lp1645
I104
aI6468
aI8657
asS'GGGGCT'
p1646
(lp1647
I2054
aI9878
asS'GTGGTG'
p1648
(lp1649
I465
aI7165
asS'GCTACG'
p1650
(lp1651
I2057
aI2225
aI5507
asS'CGTGCA'
p1652
(lp1653
I1981
aI2648
aI9117
asS'GCTTCA'
p1654
(lp1655
I5867
aI7194
asS'TTTCCC'
p1656
(lp1657
I3192
aI5183
aI9869
asS'AGCGTT'
p1658
(lp1659
I1831
asS'AGGTAA'
p1660
(lp1661
I9460
asS'TGCCCC'
p1662
(lp1663
I2681
asS'TTTCGC'
p1664
(lp1665
I3030
aI3518
asS'TGCCCG'
p1666
(lp1667
I5198
asS'ACAGTG'
p1668
(lp1669
I4587
aI7221
asS'AGCGTA'
p1670
(lp1671
I4763
aI8640
asS'AGGTAC'
p1672
(lp1673
I5932
asS'ACAACA'
p1674
(lp1675
I2042
aI4265
asS'AGCGTG'
p1676
(lp1677
I4878
aI5001
aI9833
asS'GGCCCC'
p1678
(lp1679
I255
aI6029
aI6252
aI8796
asS'CAGAAA'
p1680
(lp1681
I2386
aI3670
aI6237
aI7651
aI8084
asS'GGCCCA'
p1682
(lp1683
I9523
asS'CACGTG'
p1684
(lp1685
I3781
aI5286
aI6444
asS'CACGTA'
p1686
(lp1687
I2805
aI3000
aI8848
aI9248
asS'CACGTC'
p1688
(lp1689
I4356
aI4815
aI6746
aI7842
aI8460
aI9390
asS'CTACGC'
p1690
(lp1691
I1303
aI2058
aI6919
asS'ACGTGA'
p1692
(lp1693
I3782
aI6508
aI9825
asS'GGGACT'
p1694
(lp1695
I4176
aI6653
aI7821
asS'ACAGTC'
p1696
(lp1697
I1970
aI2260
aI4028
aI6392
asS'CACGTT'
p1698
(lp1699
I4663
aI6309
aI8337
asS'CTAAGT'
p1700
(lp1701
I5884
asS'GGCCCT'
p1702
(lp1703
I1128
aI1646
aI3050
asS'TTTTGG'
p1704
(lp1705
I2132
aI2836
asS'GGGACC'
p1706
(lp1707
I2319
aI3648
aI6230
aI8418
asS'TCGTGG'
p1708
(lp1709
I3858
aI4207
aI4707
aI6429
aI7624
asS'GGGACG'
p1710
(lp1711
I842
aI1641
aI2637
aI2902
aI5247
asS'AGAGAG'
p1712
(lp1713
I1346
aI1911
aI1913
aI2020
aI2022
aI6797
aI8179
aI9571
asS'AGAGAA'
p1714
(lp1715
I62
aI690
aI5927
asS'AGAGAC'
p1716
(lp1717
I3579
asS'GTCTCG'
p1718
(lp1719
I3418
aI5952
aI6102
asS'GTCTTT'
p1720
(lp1721
I432
asS'TCTATC'
p1722
(lp1723
I3079
aI3224
aI4366
aI4825
aI6756
aI7852
aI8155
asS'CCACCA'
p1724
(lp1725
I4901
aI9557
asS'TCTATG'
p1726
(lp1727
I2925
aI3921
asS'AGAGAT'
p1728
(lp1729
I4554
aI4699
aI8181
asS'ATGTGC'
p1730
(lp1731
I3934
aI8401
asS'TAGCCA'
p1732
(lp1733
I1477
aI2450
asS'GTCTTG'
p1734
(lp1735
I848
aI1539
aI3532
aI4031
aI6395
aI6703
aI9627
asS'TCTATT'
p1736
(lp1737
I370
aI4292
asS'GTCTTC'
p1738
(lp1739
I1422
aI1973
aI4492
aI7156
aI8110
asS'GTCTTA'
p1740
(lp1741
I1473
aI1771
aI5629
aI5641
aI8873
aI9993
asS'GCAGAG'
p1742
(lp1743
I1909
aI4279
asS'GCTCAA'
p1744
(lp1745
I2415
asS'GCTCAC'
p1746
(lp1747
I4924
asS'GCAGAC'
p1748
(lp1749
I1273
aI2651
aI3548
asS'GCAGAA'
p1750
(lp1751
I3972
aI5292
aI6236
aI8083
asS'GCTCAG'
p1752
(lp1753
I1415
aI3852
asS'AGACGT'
p1754
(lp1755
I8025
asS'TTGCTG'
p1756
(lp1757
I5427
aI9191
asS'TTGCTA'
p1758
(lp1759
I6611
aI7811
asS'TTGCTC'
p1760
(lp1761
I563
aI1797
aI7759
asS'GCAGAT'
p1762
(lp1763
I5099
asS'GCTCAT'
p1764
(lp1765
I2031
aI2283
aI8483
aI8748
asS'GTACGG'
p1766
(lp1767
I195
aI6178
aI7118
aI8090
aI8851
asS'ATGCGG'
p1768
(lp1769
I512
aI2394
aI7816
asS'CGCTCC'
p1770
(lp1771
I4962
aI5166
asS'ATGCGC'
p1772
(lp1773
I3677
aI5373
asS'ATGCGA'
p1774
(lp1775
I5173
aI5222
aI5671
aI7402
aI8446
asS'TGTAAG'
p1776
(lp1777
I874
aI1186
aI1697
asS'TGTAAC'
p1778
(lp1779
I3264
aI8068
asS'GGCTAC'
p1780
(lp1781
I103
aI2056
aI2224
aI2693
aI6069
aI7018
aI9299
asS'GACTGT'
p1782
(lp1783
I1100
aI4863
asS'GGTATT'
p1784
(lp1785
I4155
asS'TTCGAG'
p1786
(lp1787
I126
aI631
aI2268
aI2931
aI5853
asS'TTGGTA'
p1788
(lp1789
I3344
aI3596
asS'ACTGTC'
p1790
(lp1791
I1027
asS'TTGGTC'
p1792
(lp1793
I3704
aI5527
aI7948
asS'TTCGAC'
p1794
(lp1795
I378
asS'ACTGTG'
p1796
(lp1797
I1101
aI9185
asS'TTGGTG'
p1798
(lp1799
I2134
aI9759
asS'GACTGC'
p1800
(lp1801
I392
aI4178
aI5475
aI6127
aI6278
aI7430
aI8042
asS'GGCTAT'
p1802
(lp1803
I448
aI7000
asS'GACTGA'
p1804
(lp1805
I9220
asS'GACTGG'
p1806
(lp1807
I9548
asS'TTCGAT'
p1808
(lp1809
I5967
aI7159
aI8113
asS'TTGGTT'
p1810
(lp1811
I8165
asS'ACTGTT'
p1812
(lp1813
I3389
asS'GTTTCT'
p1814
(lp1815
I155
aI8187
asS'GAATGA'
p1816
(lp1817
I2369
aI8723
aI9675
asS'ATAATT'
p1818
(lp1819
I5846
asS'CCTTTT'
p1820
(lp1821
I1858
aI2130
aI4331
aI8926
asS'GTTTCG'
p1822
(lp1823
I3029
aI6435
asS'GTTTCC'
p1824
(lp1825
I3211
aI5182
aI6136
asS'GTTTCA'
p1826
(lp1827
I1948
aI6440
asS'ATAATG'
p1828
(lp1829
I1160
aI3408
aI5547
aI6350
aI7304
asS'CCTTTA'
p1830
(lp1831
I1635
aI9848
asS'CCTTTC'
p1832
(lp1833
I211
aI4870
aI5026
aI8917
aI9529
asS'ATAATC'
p1834
(lp1835
I6719
aI7574
asS'CCTTTG'
p1836
(lp1837
I8837
asS'ACAGAA'
p1838
(lp1839
I1262
aI3254
aI8352
asS'ACAGAC'
p1840
(lp1841
I171
aI8882
asS'TTATCT'
p1842
(lp1843
I753
aI8876
asS'CTGGAC'
p1844
(lp1845
I2038
aI4896
aI6124
asS'CTGGAA'
p1846
(lp1847
I1964
aI2591
aI5482
asS'CTGGAG'
p1848
(lp1849
I1400
aI4969
asS'ACAGAT'
p1850
(lp1851
I4308
aI7384
asS'TGGGGA'
p1852
(lp1853
I2910
aI3093
aI3861
asS'TTATCA'
p1854
(lp1855
I3086
aI4449
aI4541
aI6332
aI8673
asS'CTGGAT'
p1856
(lp1857
I404
aI1370
asS'TTATCC'
p1858
(lp1859
I7243
asS'AAACCG'
p1860
(lp1861
I553
aI7026
aI8587
asS'ATTTGT'
p1862
(lp1863
I986
aI9491
aI9812
aI9965
asS'CCAATC'
p1864
(lp1865
I583
aI1406
asS'AAACCC'
p1866
(lp1867
I8563
asS'CCAATA'
p1868
(lp1869
I2988
aI3570
asS'TGTCGG'
p1870
(lp1871
I31
aI816
aI3499
aI6322
aI9717
asS'TTGCCA'
p1872
(lp1873
I6497
aI9644
asS'AACGAG'
p1874
(lp1875
I38
aI828
aI1118
aI3258
aI3425
aI4779
aI4997
asS'GAGATA'
p1876
(lp1877
I4555
aI4700
asS'TGTCGC'
p1878
(lp1879
I23
aI2970
aI3801
aI6464
aI8437
asS'GAGATG'
p1880
(lp1881
I812
aI4972
aI8182
asS'TGTCGA'
p1882
(lp1883
I3948
aI9509
asS'AAACCT'
p1884
(lp1885
I5066
aI8502
asS'GGGTAT'
p1886
(lp1887
I4162
aI4567
aI7139
aI9772
asS'ATTTGG'
p1888
(lp1889
I5525
aI9232
asS'AACGAT'
p1890
(lp1891
I14
aI4757
aI5543
aI8907
aI9228
asS'TGTCGT'
p1892
(lp1893
I3695
asS'CCCTAC'
p1894
(lp1895
I1301
asS'CATGGA'
p1896
(lp1897
I4116
asS'CCCTAA'
p1898
(lp1899
I3195
asS'CATTAT'
p1900
(lp1901
I2308
aI3084
asS'ATGCAA'
p1902
(lp1903
I9455
asS'TGGATT'
p1904
(lp1905
I405
aI5005
aI6869
aI9488
asS'GCAATT'
p1906
(lp1907
I4109
aI8823
asS'ATCACC'
p1908
(lp1909
I5021
asS'CATGCT'
p1910
(lp1911
I2034
aI2880
aI5031
aI5393
asS'TGACAC'
p1912
(lp1913
I1105
aI9661
asS'ATCACG'
p1914
(lp1915
I452
aI5284
aI8491
asS'TGGATA'
p1916
(lp1917
I9444
asS'TGGATC'
p1918
(lp1919
I916
aI5281
aI6039
asS'CATTAA'
p1920
(lp1921
I2952
aI3057
aI6939
aI7236
asS'TGGATG'
p1922
(lp1923
I1371
asS'CATAGC'
p1924
(lp1925
I3603
asS'TGACAT'
p1926
(lp1927
I868
aI3928
aI9633
asS'GGAACT'
p1928
(lp1929
I2593
aI5484
aI7959
asS'ATCACT'
p1930
(lp1931
I3439
aI8675
asS'CATGCG'
p1932
(lp1933
I3676
aI5372
aI8445
asS'GTAGAA'
p1934
(lp1935
I549
aI3204
aI5996
aI7784
asS'GTAGAC'
p1936
(lp1937
I9238
asS'CCGCTT'
p1938
(lp1939
I6265
aI7343
aI9284
asS'GTAGAG'
p1940
(lp1941
I1062
aI7538
aI9956
asS'GATTGG'
p1942
(lp1943
I407
aI3594
aI5007
asS'ACAACC'
p1944
(lp1945
I2073
asS'GATTGC'
p1946
(lp1947
I677
aI1795
aI2599
asS'GATTGA'
p1948
(lp1949
I1732
aI7349
asS'AGTCCC'
p1950
(lp1951
I2796
aI5460
asS'GTAGAT'
p1952
(lp1953
I5667
aI5784
aI9423
asS'TGCTAC'
p1954
(lp1955
I5446
aI6612
asS'GGGTAC'
p1956
(lp1957
I181
aI3940
aI9385
asS'ATGAGT'
p1958
(lp1959
I6204
aI7942
asS'CATGGC'
p1960
(lp1961
I907
aI2286
asS'GATTGT'
p1962
(lp1963
I20
aI5616
aI8364
asS'ACAACT'
p1964
(lp1965
I6214
asS'GCGCGT'
p1966
(lp1967
I911
aI1333
aI7709
asS'TAATAG'
p1968
(lp1969
I643
aI4258
asS'GTCCGG'
p1970
(lp1971
I1446
aI4409
aI6049
aI7098
aI7746
aI9404
asS'TGAGGT'
p1972
(lp1973
I7046
aI7169
asS'TAATAA'
p1974
(lp1975
I3106
aI7636
asS'GTCCGC'
p1976
(lp1977
I5983
asS'TGTTTA'
p1978
(lp1979
I5698
asS'TCAACA'
p1980
(lp1981
I4602
aI7608
asS'ACTCTT'
p1982
(lp1983
I1493
aI2762
aI8780
asS'GTCCGT'
p1984
(lp1985
I6807
asS'TAATAT'
p1986
(lp1987
I2718
aI6875
asS'ATTCGC'
p1988
(lp1989
I9637
asS'TTCTCC'
p1990
(lp1991
I214
aI862
aI2787
aI5903
asS'ATTCGA'
p1992
(lp1993
I377
aI630
aI3623
aI5966
asS'CAGCTG'
p1994
(lp1995
I2966
aI6121
asS'ATCCAT'
p1996
(lp1997
I1672
aI6541
aI6585
asS'TTCTCG'
p1998
(lp1999
I8343
aI8830
asS'TCGTAC'
p2000
(lp2001
I6176
asS'TACCTT'
p2002
(lp2003
I4868
aI5489
aI5935
aI7719
asS'TCGTAA'
p2004
(lp2005
I1034
aI3421
aI8304
asS'TCGTAG'
p2006
(lp2007
I4370
aI4829
aI5782
aI6643
aI6760
aI7536
aI7856
asS'GAACCT'
p2008
(lp2009
I72
aI1553
aI3740
aI3865
aI4581
aI5738
asS'ATCCAA'
p2010
(lp2011
I310
asS'ATCCAC'
p2012
(lp2013
I9016
aI9555
asS'TGAACC'
p2014
(lp2015
I1552
aI7064
asS'TTCTCT'
p2016
(lp2017
I322
aI2518
asS'ATCCAG'
p2018
(lp2019
I353
aI4532
aI4801
aI6545
aI7004
aI9260
asS'GAACCC'
p2020
(lp2021
I6258
asS'TTATAT'
p2022
(lp2023
I5701
asS'TACCTG'
p2024
(lp2025
I1280
aI1961
aI5242
asS'GAACCG'
p2026
(lp2027
I272
asS'TACCTC'
p2028
(lp2029
I184
aI4056
aI8912
aI9201
asS'TCGTAT'
p2030
(lp2031
I1680
aI9270
asS'ACCATC'
p2032
(lp2033
I1172
aI2005
asS'ATGTTC'
p2034
(lp2035
I1676
aI2928
aI5752
asS'ACCATG'
p2036
(lp2037
I3839
aI6201
asS'ATGTTG'
p2038
(lp2039
I4068
aI7808
aI8708
asS'AGCTCT'
p2040
(lp2041
I8152
aI9805
asS'GAGCTG'
p2042
(lp2043
I3428
aI4215
aI4635
asS'AGCGTC'
p2044
(lp2045
I5980
asS'ATGTTT'
p2046
(lp2047
I1946
aI3209
aI5651
aI7983
aI8185
asS'ACCATT'
p2048
(lp2049
I2514
aI4548
asS'AGTGGA'
p2050
(lp2051
I2067
aI7072
asS'AGCTCC'
p2052
(lp2053
I6018
aI8282
asS'AGCTCA'
p2054
(lp2055
I2282
aI2414
aI3851
aI8482
asS'ATAGCC'
p2056
(lp2057
I6375
aI6882
asS'CAGTAA'
p2058
(lp2059
I4255
aI7633
asS'CAGTAC'
p2060
(lp2061
I4322
aI4377
aI4836
aI6767
aI7863
aI9153
asS'CAGTAG'
p2062
(lp2063
I90
aI937
aI3038
aI3542
aI9954
asS'CGCGGT'
p2064
(lp2065
I3528
aI3690
aI5376
aI6003
aI6692
asS'TTAATA'
p2066
(lp2067
I6874
asS'CAGTAT'
p2068
(lp2069
I5842
aI7292
aI8160
aI8995
aI9946
asS'TGTCCC'
p2070
(lp2071
I3153
aI4072
asS'AAAGTC'
p2072
(lp2073
I3635
aI5458
aI5835
aI7285
aI8988
aI9939
asS'CCGGCT'
p2074
(lp2075
I1428
aI5908
aI7100
asS'GATCTC'
p2076
(lp2077
I234
aI1362
aI2373
aI3755
aI6041
asS'GATCTG'
p2078
(lp2079
I335
aI7929
asS'TTTCAG'
p2080
(lp2081
I2211
asS'CCGGCC'
p2082
(lp2083
I1520
aI4327
aI6051
asS'ATTAGG'
p2084
(lp2085
I1684
asS'AAAGTT'
p2086
(lp2087
I980
aI6638
aI6950
asS'ACTCTC'
p2088
(lp2089
I6172
aI9041
asS'ATTAGC'
p2090
(lp2091
I1150
aI6360
asS'TCCCTC'
p2092
(lp2093
I587
aI1853
asS'TGTCCG'
p2094
(lp2095
I6806
asS'TCCCTA'
p2096
(lp2097
I3194
asS'TCCCTG'
p2098
(lp2099
I9871
asS'GATCTT'
p2100
(lp2101
I4222
asS'ATAGAA'
p2102
(lp2103
I6564
aI8117
asS'CACAAT'
p2104
(lp2105
I3760
aI4486
asS'AAGTGC'
p2106
(lp2107
I1196
aI2769
aI5195
aI8647
aI9436
asS'TGTTCT'
p2108
(lp2109
I4142
aI6707
aI8828
aI9817
asS'AAGTGG'
p2110
(lp2111
I3144
aI7071
asS'TGATTG'
p2112
(lp2113
I19
aI1794
aI2598
aI7348
asS'TCTGAT'
p2114
(lp2115
I337
aI2521
aI2543
aI6726
aI9746
asS'TGATTA'
p2116
(lp2117
I1582
aI2523
asS'TGTTCA'
p2118
(lp2119
I5753
asS'CACAAG'
p2120
(lp2121
I1878
aI4237
asS'TGTTCC'
p2122
(lp2123
I3296
aI7225
asS'CACAAA'
p2124
(lp2125
I534
aI6518
asS'TGTTCG'
p2126
(lp2127
I1677
aI2266
aI2929
aI5851
aI7752
asS'TCTGAC'
p2128
(lp2129
I1723
aI9659
asS'TCTGAG'
p2130
(lp2131
I591
aI3657
aI7931
asS'CGCGCC'
p2132
(lp2133
I7175
asS'AGATGG'
p2134
(lp2135
I4388
aI4847
aI6601
aI6778
aI7874
asS'CGCGCG'
p2136
(lp2137
I7924
asS'CTCCCT'
p2138
(lp2139
I8923
asS'AGCGGG'
p2140
(lp2141
I1895
aI2088
asS'GTGCGT'
p2142
(lp2143
I461
aI968
aI2463
aI5380
asS'ACCTCT'
p2144
(lp2145
I185
aI2713
aI3466
aI4057
aI5740
asS'AGATGA'
p2146
(lp2147
I4973
aI9425
asS'CGCGCT'
p2148
(lp2149
I26
aI5322
aI6887
asS'GTGCGA'
p2150
(lp2151
I651
aI2702
aI6447
aI8276
asS'CTCCCG'
p2152
(lp2153
I5905
aI5912
aI6044
aI7774
aI8284
asS'ACCTCG'
p2154
(lp2155
I807
aI3867
asS'GTGCGG'
p2156
(lp2157
I884
aI1198
aI3936
aI9174
asS'GCCTCT'
p2158
(lp2159
I788
aI4525
asS'TAAGCC'
p2160
(lp2161
I1188
aI7371
aI8143
asS'TAGCTC'
p2162
(lp2163
I2413
aI5946
aI8694
aI9804
asS'TAAGCA'
p2164
(lp2165
I346
aI5645
asS'CGGGAA'
p2166
(lp2167
I7490
asS'TAAGCG'
p2168
(lp2169
I205
aI5593
aI7833
aI9463
aI9852
asS'CGGGAC'
p2170
(lp2171
I2318
aI4175
aI6652
asS'CCCATC'
p2172
(lp2173
I258
aI4676
aI5187
asS'CCGAGA'
p2174
(lp2175
I3072
aI5538
asS'CCTGCT'
p2176
(lp2177
I2587
aI3246
aI7526
asS'CCGAAT'
p2178
(lp2179
I891
aI7453
aI8617
asS'CCCATT'
p2180
(lp2181
I1247
aI2081
aI2306
aI3383
aI7603
asS'CGGGAT'
p2182
(lp2183
I674
aI1729
aI6346
aI8361
asS'GCCTCG'
p2184
(lp2185
I701
aI2499
aI9468
asS'GCCTCA'
p2186
(lp2187
I141
aI4624
aI7417
aI8441
asS'TAAGCT'
p2188
(lp2189
I1866
aI6630
asS'GCCTCC'
p2190
(lp2191
I2773
asS'CCGAAC'
p2192
(lp2193
I70
aI3215
aI6108
aI6256
aI7080
asS'CCTGCG'
p2194
(lp2195
I1765
asS'CCGAAA'
p2196
(lp2197
I1216
aI9055
asS'CCGAAG'
p2198
(lp2199
I363
aI1193
aI6014
aI6192
asS'AGACTT'
p2200
(lp2201
I3550
aI8900
asS'CCTGCA'
p2202
(lp2203
I709
aI954
aI4497
asS'GTACTG'
p2204
(lp2205
I9183
asS'CCATTC'
p2206
(lp2207
I319
aI2515
aI7604
asS'CCATTA'
p2208
(lp2209
I2307
aI3384
aI4549
aI6938
asS'ATTTCC'
p2210
(lp2211
I2533
aI2993
asS'CCATTG'
p2212
(lp2213
I2082
aI5680
aI6865
asS'TATAAC'
p2214
(lp2215
I1498
aI4889
aI8550
aI9949
asS'TATAAT'
p2216
(lp2217
I5845
asS'CCATTT'
p2218
(lp2219
I1248
asS'TCAGCG'
p2220
(lp2221
I6825
aI6995
asS'TCTACC'
p2222
(lp2223
I1959
aI3068
asS'TCTACG'
p2224
(lp2225
I6918
asS'CACCGT'
p2226
(lp2227
I746
aI898
aI9983
asS'CGCAAC'
p2228
(lp2229
I1919
aI5600
asS'ATACCG'
p2230
(lp2231
I67
aI619
aI3361
aI7486
asS'CGCAAG'
p2232
(lp2233
I7189
aI8320
asS'ATACCA'
p2234
(lp2235
I134
aI2003
aI2118
aI3788
asS'ATACCC'
p2236
(lp2237
I4558
aI5264
aI5386
aI6009
aI8196
asS'ATACCT'
p2238
(lp2239
I1279
aI2103
aI8911
asS'CGCAAT'
p2240
(lp2241
I397
aI2352
aI8822
asS'TAGTAA'
p2242
(lp2243
I685
asS'TGGGTG'
p2244
(lp2245
I6270
asS'TAGTAC'
p2246
(lp2247
I497
aI4133
aI4261
aI5494
asS'CTCAAG'
p2248
(lp2249
I7419
asS'CTCAAA'
p2250
(lp2251
I2416
asS'TAGTAG'
p2252
(lp2253
I5994
asS'CTCAAC'
p2254
(lp2255
I4601
asS'GTGTGG'
p2256
(lp2257
I6036
aI6553
aI7955
asS'TAGTAT'
p2258
(lp2259
I717
aI5774
aI8931
aI9080
asS'GTGTGT'
p2260
(lp2261
I3433
aI5015
aI5359
aI9179
asS'ATCTTT'
p2262
(lp2263
I3063
aI3515
aI5422
aI5828
aI7278
aI8981
aI9932
asS'GTTGGG'
p2264
(lp2265
I990
aI4189
aI8012
aI8415
asS'GTTGGA'
p2266
(lp2267
I6456
aI8375
asS'GTTGGC'
p2268
(lp2269
I8767
asS'CCTTGG'
p2270
(lp2271
I1081
asS'CCTTGA'
p2272
(lp2273
I3743
aI4651
aI8253
asS'GGGAAA'
p2274
(lp2275
I7491
asS'CCTTGC'
p2276
(lp2277
I85
aI9642
asS'GGACGT'
p2278
(lp2279
I2638
aI8106
asS'GTTGGT'
p2280
(lp2281
I9758
asS'ATCTTG'
p2282
(lp2283
I1926
aI8596
aI9478
asS'ATCTTC'
p2284
(lp2285
I4223
aI4232
aI6304
aI6722
aI9148
aI9603
asS'AGGATC'
p2286
(lp2287
I333
aI2327
aI3808
aI5466
aI9266
asS'AGGATA'
p2288
(lp2289
I9693
asS'AGGATG'
p2290
(lp2291
I7735
asS'GACATA'
p2292
(lp2293
I1276
aI3929
asS'TCGGCG'
p2294
(lp2295
I9394
asS'GAATAT'
p2296
(lp2297
I3975
asS'GGTGCA'
p2298
(lp2299
I2249
aI6057
asS'TCGGCC'
p2300
(lp2301
I8005
asS'GGCGTC'
p2302
(lp2303
I7595
asS'TCGGCA'
p2304
(lp2305
I3238
aI7547
asS'GACATT'
p2306
(lp2307
I869
aI1356
aI6357
aI8391
aI9634
asS'TTGCGG'
p2308
(lp2309
I2601
asS'GAATAG'
p2310
(lp2311
I7455
aI7642
asS'TCGGCT'
p2312
(lp2313
I1338
aI2571
aI5343
aI6590
aI7991
asS'ATCAGC'
p2314
(lp2315
I6994
asS'GAATAC'
p2316
(lp2317
I65
aI893
aI2001
aI2101
aI2746
aI3786
asS'GAATAA'
p2318
(lp2319
I737
asS'CGTCGT'
p2320
(lp2321
I2645
aI5780
aI7597
aI7622
aI8028
asS'CCGCCG'
p2322
(lp2323
I5115
aI7898
asS'TTAATT'
p2324
(lp2325
I5209
aI6941
aI8557
asS'GACCTT'
p2326
(lp2327
I8420
aI8835
asS'TACAAG'
p2328
(lp2329
I5310
aI8644
aI9156
asS'TTTCTA'
p2330
(lp2331
I1862
aI3066
asS'AATGAT'
p2332
(lp2333
I1463
aI1580
aI2370
aI8724
aI9676
asS'GAAATA'
p2334
(lp2335
I1601
aI6239
asS'GAAATC'
p2336
(lp2337
I5110
aI6301
aI8034
aI9093
asS'CGCATT'
p2338
(lp2339
I7234
aI7892
aI9962
asS'GAAATT'
p2340
(lp2341
I821
asS'AATGAA'
p2342
(lp2343
I487
asS'AATGAC'
p2344
(lp2345
I1006
aI3763
asS'AATGAG'
p2346
(lp2347
I6352
aI9290
asS'ATGGTA'
p2348
(lp2349
I5770
aI6603
asS'CTTGGA'
p2350
(lp2351
I1082
aI2441
aI3957
aI5084
aI6672
aI7312
aI7465
asS'CTTGGC'
p2352
(lp2353
I100
aI3968
aI5095
aI7323
aI7476
aI7705
aI9480
asS'GTCCTT'
p2354
(lp2355
I1633
aI2128
aI4434
aI8251
asS'CTTGGG'
p2356
(lp2357
I1057
aI4033
aI6268
aI6397
asS'ATACAG'
p2358
(lp2359
I2748
aI4252
aI8244
aI9447
asS'AGCCCT'
p2360
(lp2361
I1040
aI6801
asS'GCGTAA'
p2362
(lp2363
I7442
asS'TTGAAT'
p2364
(lp2365
I306
aI3535
aI7799
asS'GTCCTA'
p2366
(lp2367
I1811
asS'GTCCTC'
p2368
(lp2369
I4087
asS'TGCACG'
p2370
(lp2371
I298
aI3014
aI8335
asS'TGCACA'
p2372
(lp2373
I711
aI4305
aI6892
asS'GTCCTG'
p2374
(lp2375
I2585
asS'TGCACC'
p2376
(lp2377
I8650
aI9195
asS'TTGAAA'
p2378
(lp2379
I1607
aI6635
asS'TTGAAC'
p2380
(lp2381
I825
aI3745
asS'AGCCCA'
p2382
(lp2383
I1437
aI4752
asS'TTGAAG'
p2384
(lp2385
I1507
aI7351
aI8625
aI8711
asS'TTAACT'
p2386
(lp2387
I4614
aI5727
asS'ATAAAT'
p2388
(lp2389
I7091
aI7147
asS'TGGTCG'
p2390
(lp2391
I3843
aI7949
asS'TGGTCA'
p2392
(lp2393
I3705
asS'TGGTCC'
p2394
(lp2395
I1375
aI1487
asS'ACGATT'
p2396
(lp2397
I5614
aI9229
asS'GAGACT'
p2398
(lp2399
I2706
aI8899
asS'ACGGGG'
p2400
(lp2401
I2899
aI9793
asS'TGGTCT'
p2402
(lp2403
I1164
aI1956
aI5528
aI6100
asS'ATAAAG'
p2404
(lp2405
I2979
aI3825
aI4345
aI8999
aI9680
asS'ATAAAA'
p2406
(lp2407
I1207
aI2817
aI4418
asS'ATGGTG'
p2408
(lp2409
I1693
asS'ATAAAC'
p2410
(lp2411
I6504
aI7296
asS'GAGACG'
p2412
(lp2413
I3580
aI7934
aI8024
asS'ACGATG'
p2414
(lp2415
I15
aI931
aI2123
aI2299
aI3170
asS'GAGACC'
p2416
(lp2417
I2914
aI7076
asS'CGTATC'
p2418
(lp2419
I9271
asS'GAGACA'
p2420
(lp2421
I1259
aI3447
aI4426
aI6355
asS'ACGATA'
p2422
(lp2423
I4758
aI5544
aI8908
asS'GGTTAC'
p2424
(lp2425
I3137
aI7380
aI7628
aI8270
aI9978
asS'ATGTGT'
p2426
(lp2427
I8065
asS'GGTTAA'
p2428
(lp2429
I3878
aI5759
asS'TCCCAA'
p2430
(lp2431
I5732
asS'GGTTAG'
p2432
(lp2433
I2447
aI5332
asS'CTTCCT'
p2434
(lp2435
I1547
aI4494
aI5891
aI8423
asS'TAAACT'
p2436
(lp2437
I3881
aI5940
asS'CCAACA'
p2438
(lp2439
I6284
aI8456
asS'TCCGCT'
p2440
(lp2441
I1366
aI2776
aI6264
asS'ACCACG'
p2442
(lp2443
I801
aI2120
aI2873
aI4403
asS'CTTCCC'
p2444
(lp2445
I1424
aI9278
asS'ACCACC'
p2446
(lp2447
I281
aI4900
asS'ACCACA'
p2448
(lp2449
I112
aI742
asS'TCCGCC'
p2450
(lp2451
I1297
aI5114
aI7897
aI8429
asS'TCCGCG'
p2452
(lp2453
I3688
aI5984
asS'CGTACA'
p2454
(lp2455
I1803
aI2757
aI7249
aI8129
aI8520
aI8642
asS'AACGTC'
p2456
(lp2457
I2727
asS'AACGTA'
p2458
(lp2459
I3326
aI4013
aI9166
asS'CGTGAA'
p2460
(lp2461
I240
aI1234
aI3783
aI8031
aI8720
asS'CGTGAC'
p2462
(lp2463
I4880
aI5472
asS'AGTGTG'
p2464
(lp2465
I6035
aI6552
asS'TCTTCG'
p2466
(lp2467
I158
aI1977
aI7157
aI8111
asS'AGTGTA'
p2468
(lp2469
I3262
aI6196
aI9706
asS'TCTTCA'
p2470
(lp2471
I4224
aI4233
aI6305
aI9149
aI9604
asS'AGTGTC'
p2472
(lp2473
I4044
aI4362
aI4821
aI6408
aI6752
aI7848
aI9594
asS'TCTTCC'
p2474
(lp2475
I1423
aI4493
aI5890
aI9277
asS'TAAGTG'
p2476
(lp2477
I2768
asS'TAAGTC'
p2478
(lp2479
I5126
asS'AACGTT'
p2480
(lp2481
I1611
aI4186
aI6453
aI7390
aI8553
aI8764
asS'GTGTAT'
p2482
(lp2483
I3435
aI4414
aI5017
aI9707
asS'TCTTCT'
p2484
(lp2485
I1974
aI6723
asS'AGTGTT'
p2486
(lp2487
I3294
aI7223
asS'TTGGCA'
p2488
(lp2489
I3969
aI5096
aI6945
aI7324
aI7477
aI8768
asS'AAAGGT'
p2490
(lp2491
I1073
asS'CCGTGC'
p2492
(lp2493
I1411
aI2461
aI9116
asS'TTGGCG'
p2494
(lp2495
I2838
aI7706
aI9481
asS'GACTTC'
p2496
(lp2497
I8901
aI9086
asS'CGCCGG'
p2498
(lp2499
I7177
asS'GACTTA'
p2500
(lp2501
I3551
aI3766
asS'GACTTG'
p2502
(lp2503
I98
asS'ACGTCA'
p2504
(lp2505
I4357
aI4816
aI6747
aI6909
aI7843
aI8461
asS'AAAGGG'
p2506
(lp2507
I6521
aI9001
asS'AAAGGA'
p2508
(lp2509
I289
asS'TTGGCT'
p2510
(lp2511
I101
aI5009
asS'AAAGGC'
p2512
(lp2513
I3047
aI8662
aI9137
asS'GAGTAC'
p2514
(lp2515
I2936
aI5298
aI5798
asS'GAGGAT'
p2516
(lp2517
I7734
aI9265
aI9692
asS'CAAGAA'
p2518
(lp2519
I5735
aI6734
aI7108
aI7421
aI7972
asS'AGCGAG'
p2520
(lp2521
I5662
aI8234
aI8468
asS'CAAGAC'
p2522
(lp2523
I389
aI7673
asS'CAAGAG'
p2524
(lp2525
I150
aI3301
asS'CGTATT'
p2526
(lp2527
I1681
asS'TTCTTG'
p2528
(lp2529
I7703
asS'TTCTTC'
p2530
(lp2531
I157
aI1976
aI5889
asS'TTCTTA'
p2532
(lp2533
I4144
aI4770
aI4873
asS'CAAGAT'
p2534
(lp2535
I6599
asS'CCCGAT'
p2536
(lp2537
I414
aI3591
asS'TACGGG'
p2538
(lp2539
I2316
aI2898
aI8091
aI8359
asS'TACGGA'
p2540
(lp2541
I3574
asS'TACGGC'
p2542
(lp2543
I8852
asS'CCAACT'
p2544
(lp2545
I6983
aI9897
asS'TAGAGT'
p2546
(lp2547
I1063
asS'TACGGT'
p2548
(lp2549
I196
aI6179
aI7119
asS'GAGTAT'
p2550
(lp2551
I8054
aI8471
asS'CCCGAG'
p2552
(lp2553
I5537
aI9585
asS'CCCGAA'
p2554
(lp2555
I1192
aI6013
aI6255
aI7452
asS'AGGGCC'
p2556
(lp2557
I1126
aI2891
aI6027
asS'AGTTCG'
p2558
(lp2559
I124
aI472
aI1589
aI2564
aI6640
aI6952
aI8818
asS'TAGAGA'
p2560
(lp2561
I4553
asS'GGCGAG'
p2562
(lp2563
I6064
aI8095
aI9008
asS'AGTAAT'
p2564
(lp2565
I2272
aI4256
aI4461
aI7634
asS'GTGCTG'
p2566
(lp2567
I9215
asS'GTGCTA'
p2568
(lp2569
I5445
aI8601
aI9438
asS'ATCTGT'
p2570
(lp2571
I8949
aI9731
asS'CGAATT'
p2572
(lp2573
I302
aI2842
aI9856
asS'TTGCGC'
p2574
(lp2575
I1929
aI3896
aI3988
aI5319
asS'TAGGAC'
p2576
(lp2577
I8104
aI9410
asS'ATCTGA'
p2578
(lp2579
I336
aI2542
aI7930
aI9658
asS'GTGCTT'
p2580
(lp2581
I1663
aI8669
aI9836
asS'ATCTGC'
p2582
(lp2583
I1175
asS'CGAATA'
p2584
(lp2585
I892
aI7454
asS'CGAATG'
p2586
(lp2587
I2906
aI8618
aI9674
asS'ATCTGG'
p2588
(lp2589
I1953
asS'ATCATA'
p2590
(lp2591
I6904
asS'GATAGC'
p2592
(lp2593
I4760
aI6881
asS'AAGCAG'
p2594
(lp2595
I4277
asS'GATAGA'
p2596
(lp2597
I8116
asS'AAGCAA'
p2598
(lp2599
I3828
aI5646
aI7663
aI7969
asS'GATAGG'
p2600
(lp2601
I879
asS'AAGCAC'
p2602
(lp2603
I347
aI4907
asS'GGCTCA'
p2604
(lp2605
I2030
asS'GTTATG'
p2606
(lp2607
I2504
aI4520
asS'CTAGGT'
p2608
(lp2609
I2857
aI7792
asS'TTTCAT'
p2610
(lp2611
I1949
aI5028
aI5104
asS'GTTATC'
p2612
(lp2613
I752
aI6331
aI7242
asS'GTTATA'
p2614
(lp2615
I4249
aI4666
asS'CAAACA'
p2616
(lp2617
I2484
aI5042
asS'AAGCAT'
p2618
(lp2619
I2610
aI4341
asS'CAAACC'
p2620
(lp2621
I5874
aI6078
aI8586
asS'TTTACA'
p2622
(lp2623
I903
aI4334
aI5581
asS'ATCATT'
p2624
(lp2625
I3082
aI6334
asS'GATAGT'
p2626
(lp2627
I4131
aI4702
asS'ACGCAG'
p2628
(lp2629
I2060
asS'CTAGGG'
p2630
(lp2631
I1124
aI6380
aI7136
aI9700
asS'GTTATT'
p2632
(lp2633
I983
asS'CTAGGC'
p2634
(lp2635
I1525
asS'CATTTT'
p2636
(lp2637
I1249
aI7551
asS'CTAGGA'
p2638
(lp2639
I331
aI3806
aI4988
asS'AAGTTT'
p2640
(lp2641
I3187
aI4610
asS'TACAGT'
p2642
(lp2643
I2259
aI4253
aI4586
aI6964
aI7631
asS'CTCGAA'
p2644
(lp2645
I5954
aI6534
aI7825
asS'ATTTCA'
p2646
(lp2647
I4295
aI5103
asS'CTAAGG'
p2648
(lp2649
I2324
aI3197
aI4682
asS'CTAAGA'
p2650
(lp2651
I59
aI5961
aI7216
asS'CTAAGC'
p2652
(lp2653
I204
aI1865
aI7832
asS'TACAGG'
p2654
(lp2655
I106
aI3478
aI5229
aI6470
aI8245
asS'AAGTTG'
p2656
(lp2657
I2677
aI3317
aI9614
asS'AAGTTA'
p2658
(lp2659
I981
aI7240
aI9159
asS'TACAGC'
p2660
(lp2661
I2749
aI9448
asS'AAGTTC'
p2662
(lp2663
I366
aI5886
aI5921
aI6639
aI6951
asS'TACAGA'
p2664
(lp2665
I170
aI7383
aI8881
asS'GGGGCC'
p2666
(lp2667
I2479
aI3370
aI3503
aI7414
aI9051
asS'GTATGA'
p2668
(lp2669
I4747
aI8933
aI9082
asS'GGGGCA'
p2670
(lp2671
I4106
asS'CCATGG'
p2672
(lp2673
I3840
asS'TATATC'
p2674
(lp2675
I2144
aI2945
aI4596
aI6991
asS'GAGGGG'
p2676
(lp2677
I4104
aI7412
aI9574
asS'TATATA'
p2678
(lp2679
I225
aI1049
aI8474
asS'TATATG'
p2680
(lp2681
I3978
asS'ACATCG'
p2682
(lp2683
I5802
aI5862
aI7252
aI8523
aI8955
aI9906
asS'TCCGGT'
p2684
(lp2685
I3134
aI4410
aI7228
aI7747
aI9405
asS'GCCCAT'
p2686
(lp2687
I3382
aI7979
aI9377
asS'TATATT'
p2688
(lp2689
I419
aI4641
aI5702
aI6243
asS'TGATGG'
p2690
(lp2691
I1254
asS'CATATG'
p2692
(lp2693
I3931
aI5303
asS'TGATGC'
p2694
(lp2695
I3565
aI8256
asS'GCCCAC'
p2696
(lp2697
I5072
aI9524
asS'TGATGA'
p2698
(lp2699
I6728
aI7043
asS'TGCCAT'
p2700
(lp2701
I613
aI2403
aI7358
asS'CACATC'
p2702
(lp2703
I350
aI9257
asS'TGTTTC'
p2704
(lp2705
I1947
aI3028
aI3210
aI5181
aI8186
asS'CACATA'
p2706
(lp2707
I713
aI2559
aI3822
asS'TCATAA'
p2708
(lp2709
I2815
aI7368
asS'CACATG'
p2710
(lp2711
I4910
asS'TGTTTG'
p2712
(lp2713
I190
asS'ATGAGA'
p2714
(lp2715
I3445
aI6353
asS'ATGAGC'
p2716
(lp2717
I4749
aI9427
aI9537
asS'ATGAGG'
p2718
(lp2719
I5271
aI7045
aI9291
asS'TTTCAC'
p2720
(lp2721
I6441
aI9667
asS'ACTCTG'
p2722
(lp2723
I4893
aI9303
asS'TTAATC'
p2724
(lp2725
I1774
aI7532
asS'TGCCAA'
p2726
(lp2727
I2201
aI3568
aI4738
aI6498
aI9645
aI9895
asS'CACATT'
p2728
(lp2729
I114
aI6894
asS'TTAATG'
p2730
(lp2731
I485
aI1578
aI8862
aI9288
asS'AAATTA'
p2732
(lp2733
I1995
asS'AAATTG'
p2734
(lp2735
I822
aI6608
asS'CCAGTA'
p2736
(lp2737
I3037
asS'TTCAAT'
p2738
(lp2739
I4297
asS'CTTCGA'
p2740
(lp2741
I3398
aI7158
aI8112
asS'GATGGC'
p2742
(lp2743
I3952
asS'AAATTT'
p2744
(lp2745
I2832
asS'TTCGAA'
p2746
(lp2747
I3399
aI3624
aI6954
asS'GGGAAC'
p2748
(lp2749
I3863
aI5858
asS'GGTGCG'
p2750
(lp2751
I883
aI5379
asS'GCGTAT'
p2752
(lp2753
I5382
asS'GGGAAG'
p2754
(lp2755
I9590
asS'GGTGCC'
p2756
(lp2757
I2136
aI2199
aI7356
aI8738
asS'TCGTCC'
p2758
(lp2759
I6934
aI7599
asS'AGGTCC'
p2760
(lp2761
I1075
aI2583
aI4432
aI4671
aI6853
asS'AGAGCG'
p2762
(lp2763
I1915
aI9958
asS'GCGACT'
p2764
(lp2765
I1307
aI8777
aI9341
asS'AGAGCC'
p2766
(lp2767
I2957
aI6799
aI8238
asS'AGAGCA'
p2768
(lp2769
I1240
aI7540
aI9366
asS'GCGTAG'
p2770
(lp2771
I3202
aI4764
aI5987
asS'GGTGCT'
p2772
(lp2773
I1662
aI8668
asS'GCGTAC'
p2774
(lp2775
I1625
aI2756
aI8128
aI8641
asS'TAATTT'
p2776
(lp2777
I2339
aI5210
aI9810
asS'GGGAAT'
p2778
(lp2779
I3095
aI3731
aI9577
asS'GCGACG'
p2780
(lp2781
I653
aI3907
aI6648
asS'AGAGCT'
p2782
(lp2783
I3303
asS'TATCGG'
p2784
(lp2785
I6486
aI7201
asS'GCGACC'
p2786
(lp2787
I3912
aI5673
asS'TCCGGC'
p2788
(lp2789
I6050
aI7099
asS'GCAGGA'
p2790
(lp2791
I2062
aI9124
asS'GCAGGC'
p2792
(lp2793
I7015
aI7327
aI8222
aI9296
aI9309
asS'GCAGGG'
p2794
(lp2795
I1752
aI3281
aI3645
aI7480
aI9621
asS'CCGTGA'
p2796
(lp2797
I239
aI5471
aI7029
aI7579
aI8719
asS'GCTCGA'
p2798
(lp2799
I565
aI6533
asS'TATTCT'
p2800
(lp2801
I421
aI9743
asS'AAATAC'
p2802
(lp2803
I3359
asS'GCAGGT'
p2804
(lp2805
I3719
aI6851
asS'CTTCGT'
p2806
(lp2807
I1978
asS'TATTCC'
p2808
(lp2809
I1286
aI3555
aI6245
asS'CAATTG'
p2810
(lp2811
I4110
aI8824
asS'CCGTGT'
p2812
(lp2813
I748
aI1016
asS'TATTCG'
p2814
(lp2815
I2847
aI4157
asS'GCTCGT'
p2816
(lp2817
I4205
aI5148
aI5948
aI7619
asS'TGTAGA'
p2818
(lp2819
I548
asS'TTTACC'
p2820
(lp2821
I579
aI765
asS'AGCATT'
p2822
(lp2823
I3473
aI4783
asS'GGCTCC'
p2824
(lp2825
I1430
aI2292
aI5910
aI6341
asS'ACCGGG'
p2826
(lp2827
I777
aI1727
aI7488
aI8792
asS'TGTAGG'
p2828
(lp2829
I730
aI7686
aI8102
asS'GGCTCG'
p2830
(lp2831
I7182
aI8687
asS'TTCGGA'
p2832
(lp2833
I474
aI9089
asS'TTCGGC'
p2834
(lp2835
I2570
aI3237
aI7990
asS'GTCTAC'
p2836
(lp2837
I1958
aI9597
asS'TTCGGG'
p2838
(lp2839
I2361
aI2849
aI4159
asS'AGCATG'
p2840
(lp2841
I5767
asS'GGCTCT'
p2842
(lp2843
I946
aI2398
aI2853
aI4949
aI5567
aI8016
asS'TGTAGT'
p2844
(lp2845
I469
aI7996
aI8171
asS'AGCATA'
p2846
(lp2847
I1153
aI2611
aI3601
aI4342
aI5336
asS'AGACCT'
p2848
(lp2849
I2653
aI3464
asS'TTCGGT'
p2850
(lp2851
I4438
aI7714
aI7754
asS'GAGCAT'
p2852
(lp2853
I4782
aI6186
aI6512
aI6900
aI9539
asS'GTTTAT'
p2854
(lp2855
I3699
aI5699
asS'CTCTCA'
p2856
(lp2857
I4527
aI5742
asS'GCACTC'
p2858
(lp2859
I7543
aI8578
asS'CGCTAC'
p2860
(lp2861
I5506
aI6467
asS'GTTTAA'
p2862
(lp2863
I972
aI4612
asS'GTTTAC'
p2864
(lp2865
I902
aI6968
asS'AACTTG'
p2866
(lp2867
I2420
aI3010
aI3966
aI5093
aI7321
aI7474
asS'GTTTAG'
p2868
(lp2869
I8610
asS'TCTTTT'
p2870
(lp2871
I5423
asS'CGCTAG'
p2872
(lp2873
I2410
aI3804
aI8691
asS'CTGGCT'
p2874
(lp2875
I944
aI5077
asS'AGGCGG'
p2876
(lp2877
I2026
aI4503
aI6473
aI7500
aI8224
aI8664
asS'GTCGGT'
p2878
(lp2879
I32
aI2093
aI7951
aI9718
asS'AGGCGC'
p2880
(lp2881
I3127
aI7921
aI9311
asS'AGGAGT'
p2882
(lp2883
I1701
aI2064
aI5796
asS'ACAGCA'
p2884
(lp2885
I5765
aI9449
asS'GAGGTC'
p2886
(lp2887
I924
aI2582
aI3376
aI5161
aI7047
aI7170
asS'ACAGCG'
p2888
(lp2889
I1111
aI1829
aI2750
aI5604
aI6087
aI8466
aI9887
asS'AGGAGC'
p2890
(lp2891
I8479
asS'GTCGGA'
p2892
(lp2893
I817
asS'AGGAGA'
p2894
(lp2895
I4100
asS'GTCGGC'
p2896
(lp2897
I1337
aI5342
aI9393
asS'AGGAGG'
p2898
(lp2899
I245
aI2888
aI5232
asS'CTGGCA'
p2900
(lp2901
I3182
aI9306
asS'CTGGCC'
p2902
(lp2903
I2575
asS'GCGCCC'
p2904
(lp2905
I9375
asS'CGATAC'
p2906
(lp2907
I5969
aI8909
asS'ACCGGT'
p2908
(lp2909
I2621
aI2740
aI6818
asS'GGAAAA'
p2910
(lp2911
I1688
aI3288
aI3632
aI4711
aI4991
aI5275
asS'ATTGGT'
p2912
(lp2913
I3595
aI3703
aI8164
asS'AATTTT'
p2914
(lp2915
I2340
aI2833
asS'AAACAG'
p2916
(lp2917
I1968
aI5763
aI6085
asS'TGTCAC'
p2918
(lp2919
I5362
aI9734
asS'CCCTCT'
p2920
(lp2921
I588
aI7208
asS'GGAAAC'
p2922
(lp2923
I1966
aI4119
aI4776
aI8263
asS'AAACAA'
p2924
(lp2925
I1220
aI6212
aI6224
aI7298
aI7916
asS'AACGCG'
p2926
(lp2927
I1501
aI5790
aI8532
asS'AATTTC'
p2928
(lp2929
I5211
asS'AACGCC'
p2930
(lp2931
I1391
asS'ATTGGA'
p2932
(lp2933
I117
aI408
aI6792
aI6867
asS'AATTTG'
p2934
(lp2935
I9811
asS'ATTTAC'
p2936
(lp2937
I578
aI764
aI5580
asS'CCCTCC'
p2938
(lp2939
I1042
aI1854
aI6261
asS'TGTCAT'
p2940
(lp2941
I1029
aI4479
aI9067
asS'CCCTCG'
p2942
(lp2943
I769
aI1130
aI8074
asS'GAGGTT'
p2944
(lp2945
I2445
asS'CAATAT'
p2946
(lp2947
I2989
aI3608
aI4593
asS'CTGACG'
p2948
(lp2949
I4630
aI6575
asS'TGACCA'
p2950
(lp2951
I1068
aI2867
aI5657
aI9763
asS'CATTCT'
p2952
(lp2953
I320
aI2516
aI5901
aI7701
asS'TAAATC'
p2954
(lp2955
I3060
aI7148
asS'TGACCG'
p2956
(lp2957
I854
aI1725
aI4000
aI4882
aI8790
asS'GCGCCA'
p2958
(lp2959
I316
asS'CATTCG'
p2960
(lp2961
I5046
aI9636
asS'TGACCT'
p2962
(lp2963
I7523
asS'CATTCA'
p2964
(lp2965
I4482
aI7605
asS'CGCTAT'
p2966
(lp2967
I4886
asS'ACAAAT'
p2968
(lp2969
I535
aI3404
aI7300
asS'GATTAA'
p2970
(lp2971
I5725
asS'GTAGGC'
p2972
(lp2973
I660
aI939
aI3544
aI4575
aI7438
aI8631
asS'GATTAC'
p2974
(lp2975
I1322
aI2524
aI5226
aI8890
asS'GTAGGA'
p2976
(lp2977
I8103
aI9409
aI9725
asS'GTAGGG'
p2978
(lp2979
I1714
aI3366
aI4016
asS'GCGGGT'
p2980
(lp2981
I1896
aI2089
aI3938
aI4505
aI5329
aI6475
asS'ACAAAC'
p2982
(lp2983
I5041
asS'TTTCAA'
p2984
(lp2985
I4296
aI5831
aI7281
aI8984
aI9935
asS'ACAAAA'
p2986
(lp2987
I1022
aI3962
aI4337
aI5089
aI7317
aI7470
aI9788
asS'ACAAAG'
p2988
(lp2989
I3141
aI6519
aI8660
asS'GCGGGC'
p2990
(lp2991
I8046
aI8757
aI9327
asS'AGGCGA'
p2992
(lp2993
I4577
aI6063
aI8775
aI9007
asS'GCGGGA'
p2994
(lp2995
I4174
asS'GCGGGG'
p2996
(lp2997
I7818
aI8700
asS'GATTAT'
p2998
(lp2999
I1583
asS'GTAGGT'
p3000
(lp3001
I92
aI731
aI7687
asS'AACCTG'
p3002
(lp3003
I5067
aI8786
asS'TAATGA'
p3004
(lp3005
I486
aI1005
aI1579
aI6351
aI9289
asS'GATGTT'
p3006
(lp3007
I3772
aI6153
aI8184
aI8707
asS'TAATGC'
p3008
(lp3009
I3409
asS'GGGATG'
p3010
(lp3011
I6151
aI8705
asS'TAATGG'
p3012
(lp3013
I1161
aI5548
aI7305
aI8863
asS'GCGCCG'
p3014
(lp3015
I960
aI5596
aI5607
aI7176
asS'GCCCTC'
p3016
(lp3017
I1041
aI1129
asS'GATGTG'
p3018
(lp3019
I7162
asS'GCCCTA'
p3020
(lp3021
I1300
asS'GATGTA'
p3022
(lp3023
I8806
asS'GCCCTG'
p3024
(lp3025
I1647
aI6802
asS'GATGTC'
p3026
(lp3027
I814
aI2125
aI7737
aI9065
asS'AACCTC'
p3028
(lp3029
I2712
aI3866
aI5739
asS'TGAAAT'
p3030
(lp3031
I5109
aI8033
asS'GCTCTT'
p3032
(lp3033
I4950
aI5568
aI9315
asS'TTCTAA'
p3034
(lp3035
I1863
aI6709
aI7964
asS'ATCCGT'
p3036
(lp3037
I1409
aI4571
aI5469
aI7577
asS'TTCTAC'
p3038
(lp3039
I3067
asS'TGAAAA'
p3040
(lp3041
I6209
aI6219
aI6839
asS'TGAAAC'
p3042
(lp3043
I1608
aI8500
asS'TGAAAG'
p3044
(lp3045
I287
aI1236
aI6636
asS'TTCTAT'
p3046
(lp3047
I369
aI2924
aI9819
asS'ATCCGC'
p3048
(lp3049
I1296
aI5113
asS'ATCCGA'
p3050
(lp3051
I1214
aI6190
asS'ATCCGG'
p3052
(lp3053
I3227
asS'TGGCTC'
p3054
(lp3055
I945
aI4948
aI5566
aI8686
asS'TGGCTA'
p3056
(lp3057
I102
aI2692
asS'GCTACC'
p3058
(lp3059
I2694
asS'TGGCTG'
p3060
(lp3061
I5010
aI5078
asS'AGGCGT'
p3062
(lp3063
I3200
aI7440
asS'AGTTGT'
p3064
(lp3065
I4516
aI5178
aI6461
asS'AGCTAT'
p3066
(lp3067
I1821
aI3305
aI9350
aI9654
asS'ATTAGT'
p3068
(lp3069
I3274
aI4644
aI6115
asS'CTGGCG'
p3070
(lp3071
I4049
aI5216
aI5326
asS'TGGCTT'
p3072
(lp3073
I3954
asS'AGTTGG'
p3074
(lp3075
I8374
asS'AGCTAA'
p3076
(lp3077
I832
aI5959
asS'AGCTAC'
p3078
(lp3079
I3452
aI8656
asS'AGTTGC'
p3080
(lp3081
I2678
asS'AGTTGA'
p3082
(lp3083
I3318
aI9615
asS'AGCTAG'
p3084
(lp3085
I1122
aI5401
aI5433
aI5991
aI7008
aI9430
asS'TCCTAG'
p3086
(lp3087
I1433
asS'CTAATT'
p3088
(lp3089
I165
aI2338
aI9809
asS'CAGTGT'
p3090
(lp3091
I4043
aI4361
aI4820
aI6034
aI6407
aI6551
aI6751
aI7222
aI7847
asS'AGTCAG'
p3092
(lp3093
I4374
aI4833
aI6118
aI6764
aI7860
asS'TCAGGT'
p3094
(lp3095
I5756
aI9777
asS'GTCGGG'
p3096
(lp3097
I3500
aI6323
asS'TCAAGA'
p3098
(lp3099
I388
aI7420
asS'CTAATA'
p3100
(lp3101
I642
aI2717
aI3105
asS'CAGTGC'
p3102
(lp3103
I649
aI966
aI4588
aI8744
asS'GCACCC'
p3104
(lp3105
I1243
aI1786
aI3992
asS'CAGTGA'
p3106
(lp3107
I2214
asS'CAGTGG'
p3108
(lp3109
I3090
asS'CTAATG'
p3110
(lp3111
I1004
asS'TTTCGT'
p3112
(lp3113
I6436
asS'TCAGGG'
p3114
(lp3115
I1417
aI6025
aI9972
asS'TCAGGA'
p3116
(lp3117
I722
asS'TCAGGC'
p3118
(lp3119
I1748
aI5745
aI6847
asS'CGAGCT'
p3120
(lp3121
I830
aI1120
aI3427
aI4214
aI4634
aI9348
asS'TCCTAA'
p3122
(lp3123
I4680
asS'AGTCAA'
p3124
(lp3125
I2168
aI4283
asS'TTCCCT'
p3126
(lp3127
I3193
aI9870
asS'CGAGCG'
p3128
(lp3129
I4999
aI9010
asS'CGAGCA'
p3130
(lp3131
I2962
aI4781
aI6185
asS'CGCAGC'
p3132
(lp3133
I1892
aI4351
aI4810
aI6292
aI6741
aI7837
aI8288
asS'CGAGCC'
p3134
(lp3135
I1619
aI5811
aI7261
aI8964
aI9915
asS'GTTCAG'
p3136
(lp3137
I2383
aI5754
aI5923
asS'TTCCCC'
p3138
(lp3139
I5184
aI9279
aI9582
asS'ACAGCT'
p3140
(lp3141
I3450
aI4202
asS'GTTCAC'
p3142
(lp3143
I8845
asS'TTCCCG'
p3144
(lp3145
I1425
aI2181
asS'GATCAC'
p3146
(lp3147
I5283
asS'GGACCT'
p3148
(lp3149
I725
aI2320
aI8419
aI9412
asS'TACATG'
p3150
(lp3151
I229
aI905
aI4955
aI5583
aI5972
aI6318
asS'AAGTAC'
p3152
(lp3153
I1881
aI8088
asS'CACACT'
p3154
(lp3155
I1314
aI3560
aI3682
asS'TACATC'
p3156
(lp3157
I5801
aI7251
aI8522
aI8954
aI9600
aI9905
asS'AAGTAG'
p3158
(lp3159
I1224
aI7782
aI8323
asS'TACATA'
p3160
(lp3161
I1805
aI5301
asS'CATGGT'
p3162
(lp3163
I3841
aI5769
aI9070
asS'GGACCG'
p3164
(lp3165
I888
aI3649
aI6231
aI9399
asS'AACGCT'
p3166
(lp3167
I8122
asS'GGACCA'
p3168
(lp3169
I110
aI4898
asS'TCATCA'
p3170
(lp3171
I5870
asS'GGACCC'
p3172
(lp3173
I411
aI7205
asS'CACACG'
p3174
(lp3175
I2153
aI2998
aI3709
aI4927
aI8133
asS'CACACC'
p3176
(lp3177
I744
aI2737
aI3242
asS'CTGCAT'
p3178
(lp3179
I2975
aI8511
asS'CACACA'
p3180
(lp3181
I1108
aI2557
aI9255
asS'TCTGCC'
p3182
(lp3183
I2401
asS'TCTGCA'
p3184
(lp3185
I325
aI8190
asS'AGGTAG'
p3186
(lp3187
I8629
aI9650
asS'TCTGCG'
p3188
(lp3189
I424
aI1230
aI1330
aI7051
asS'CCCGTC'
p3190
(lp3191
I6046
asS'TTAAGG'
p3192
(lp3193
I4151
asS'CCCGTA'
p3194
(lp3195
I2190
aI7247
asS'TTAAGA'
p3196
(lp3197
I2954
aI5157
aI9568
asS'CCCGTG'
p3198
(lp3199
I1015
aI8718
asS'TTAAGC'
p3200
(lp3201
I345
aI5644
aI6629
aI8142
aI9851
asS'TTACGT'
p3202
(lp3203
I4916
aI8272
asS'TAGATC'
p3204
(lp3205
I5556
asS'TAGATA'
p3206
(lp3207
I1157
aI1567
aI5785
aI6716
asS'TGCCCA'
p3208
(lp3209
I4181
aI5071
aI6281
aI7978
aI8740
asS'TAGATG'
p3210
(lp3211
I3770
aI5668
aI9424
asS'TGGTTA'
p3212
(lp3213
I7627
asS'TCTGCT'
p3214
(lp3215
I1176
aI4921
aI6412
aI7616
asS'TTACGC'
p3216
(lp3217
I697
aI2526
aI6970
aI8892
asS'TTAAGT'
p3218
(lp3219
I974
aI2767
aI7238
aI9612
asS'TTACGA'
p3220
(lp3221
I5059
asS'TTACGG'
p3222
(lp3223
I2315
aI2897
aI8358
asS'CCCGTT'
p3224
(lp3225
I2380
asS'AGTGAC'
p3226
(lp3227
I1066
aI2215
asS'AGTGAA'
p3228
(lp3229
I6207
aI8174
asS'GCTAGT'
p3230
(lp3231
I5992
asS'AGTGAG'
p3232
(lp3233
I1350
aI2493
asS'GCGGTC'
p3234
(lp3235
I1768
aI3529
asS'CGGGCG'
p3236
(lp3237
I2363
aI8093
asS'AAACAC'
p3238
(lp3239
I2485
aI2734
aI7727
aI8451
aI9023
asS'TAAGAG'
p3240
(lp3241
I60
aI688
aI2164
aI2955
aI5158
aI9569
asS'CGGGCC'
p3242
(lp3243
I1449
aI8047
aI8758
aI8794
asS'TAAGAA'
p3244
(lp3245
I2098
aI7639
asS'TAAGAC'
p3246
(lp3247
I7217
asS'ATTTAT'
p3248
(lp3249
I6483
asS'AGTGAT'
p3250
(lp3251
I5413
asS'CTTTCC'
p3252
(lp3253
I8918
aI9868
asS'TAAGAT'
p3254
(lp3255
I876
aI5962
asS'CCTGAA'
p3256
(lp3257
I285
aI1550
asS'CCTGAC'
p3258
(lp3259
I866
aI2865
aI8788
aI9037
aI9545
asS'CCTGAG'
p3260
(lp3261
I2656
aI4562
asS'GTTAGG'
p3262
(lp3263
I1843
aI9495
asS'ATTGGG'
p3264
(lp3265
I6337
asS'TATACT'
p3266
(lp3267
I1571
asS'GTTAGC'
p3268
(lp3269
I2448
aI2456
aI5333
asS'GTTAGA'
p3270
(lp3271
I3461
aI4396
asS'TGTAGC'
p3272
(lp3273
I4466
aI8218
asS'GCCAAA'
p3274
(lp3275
I2482
aI3333
aI4005
aI6499
asS'TGAATT'
p3276
(lp3277
I7800
asS'TATACG'
p3278
(lp3279
I2231
aI5633
aI8516
aI9822
asS'GTTAGT'
p3280
(lp3281
I3775
asS'TATACC'
p3282
(lp3283
I133
aI618
aI5263
aI5385
aI6008
asS'TATACA'
p3284
(lp3285
I227
aI1051
aI4251
asS'ATTGGC'
p3286
(lp3287
I5008
aI6944
asS'ACTAGT'
p3288
(lp3289
I608
aI5410
aI6686
asS'TTTATT'
p3290
(lp3291
I3700
asS'GTAATA'
p3292
(lp3293
I4257
aI7635
asS'GTAATC'
p3294
(lp3295
I2273
aI7444
asS'TCTAAC'
p3296
(lp3297
I3007
aI6710
asS'CGTTCT'
p3298
(lp3299
I1396
asS'TCTAAA'
p3300
(lp3301
I1167
aI2731
aI3044
aI7965
asS'CGGATC'
p3302
(lp3303
I5806
aI7256
aI8942
aI8959
aI9910
asS'TCTAAG'
p3304
(lp3305
I1864
aI5883
aI7215
aI7831
asS'CCACCC'
p3306
(lp3307
I1480
aI1516
aI2552
asS'GTTCGT'
p3308
(lp3309
I1678
aI2565
aI2642
aI6641
asS'ACTAGG'
p3310
(lp3311
I330
asS'TTTATC'
p3312
(lp3313
I6484
asS'ACTAGC'
p3314
(lp3315
I6073
asS'TTTATA'
p3316
(lp3317
I5700
asS'ACGGTG'
p3318
(lp3319
I837
aI1660
aI3024
aI4930
asS'CCACCT'
p3320
(lp3321
I282
aI4731
aI9526
asS'CGTTCG'
p3322
(lp3323
I1613
aI2568
aI2641
aI7712
asS'TCGTTG'
p3324
(lp3325
I8413
asS'CGTTCA'
p3326
(lp3327
I2382
aI8527
asS'CGTTCC'
p3328
(lp3329
I6311
aI7392
asS'TCTAAT'
p3330
(lp3331
I2337
aI2716
aI9808
asS'TCGTCT'
p3332
(lp3333
I3221
aI5950
aI7154
asS'CTTTGT'
p3334
(lp3335
I8838
asS'AAACAT'
p3336
(lp3337
I1210
aI1942
aI3673
aI5043
aI7112
asS'ACTGGA'
p3338
(lp3339
I4968
aI5481
asS'ACTGGC'
p3340
(lp3341
I5076
asS'TAGTCC'
p3342
(lp3343
I1809
aI4085
aI7096
asS'GTGACC'
p3344
(lp3345
I853
aI1067
aI3999
aI4881
aI9762
asS'TAGTCA'
p3346
(lp3347
I3777
aI4373
aI4832
aI6117
aI6763
aI7859
aI8326
asS'GTGACA'
p3348
(lp3349
I1104
aI2216
aI9632
asS'TAGTCG'
p3350
(lp3351
I3276
aI4704
aI5340
aI6688
asS'GTGACG'
p3352
(lp3353
I6273
asS'ATTTAG'
p3354
(lp3355
I2109
asS'ACTGGT'
p3356
(lp3357
I5355
aI6098
aI9900
asS'CTTTGG'
p3358
(lp3359
I8731
asS'CCTATG'
p3360
(lp3361
I5170
aI5268
aI8398
asS'GTATTT'
p3362
(lp3363
I3983
aI9709
asS'CTTTGC'
p3364
(lp3365
I434
aI6594
asS'ACGTGC'
p3366
(lp3367
I6445
aI8274
asS'ACATTA'
p3368
(lp3369
I6358
asS'TTCTAG'
p3370
(lp3371
I9801
asS'GTGACT'
p3372
(lp3373
I96
aI5473
asS'TAGTCT'
p3374
(lp3375
I1227
aI3004
aI3041
aI5639
aI7998
asS'GTGCAC'
p3376
(lp3377
I8649
asS'CGACGG'
p3378
(lp3379
I380
aI6649
aI8812
asS'GTGCAA'
p3380
(lp3381
I2250
aI4590
aI5685
aI6058
aI7558
aI8403
asS'CGACGA'
p3382
(lp3383
I654
aI929
aI2297
aI3168
asS'ACCTAA'
p3384
(lp3385
I2322
aI3103
aI9414
asS'CGACGC'
p3386
(lp3387
I1088
aI3908
asS'ACCTAC'
p3388
(lp3389
I74
aI600
aI4583
aI9198
asS'CCGCAG'
p3390
(lp3391
I963
aI6234
aI8287
asS'CCGCAA'
p3392
(lp3393
I5599
aI7188
asS'ATTGTG'
p3394
(lp3395
I5682
aI5705
asS'CCGCAC'
p3396
(lp3397
I1875
aI5610
asS'ACGTGG'
p3398
(lp3399
I5287
aI5510
asS'ACCTAT'
p3400
(lp3401
I2105
asS'GCGCTG'
p3402
(lp3403
I27
aI5323
aI5694
aI6888
aI7768
asS'CGAAGA'
p3404
(lp3405
I2017
aI3626
aI6091
asS'CACTCA'
p3406
(lp3407
I2812
aI6813
aI9026
asS'GCGCTC'
p3408
(lp3409
I9313
asS'GTGCAT'
p3410
(lp3411
I1982
aI6834
aI9118
asS'CCGCAT'
p3412
(lp3413
I1886
asS'ATTACC'
p3414
(lp3415
I4786
asS'GAAGAT'
p3416
(lp3417
I5588
asS'GGATCT'
p3418
(lp3419
I334
aI6040
asS'TCGGAA'
p3420
(lp3421
I475
aI818
aI5191
aI9090
asS'TCGGAC'
p3422
(lp3423
I7203
asS'GAATCT'
p3424
(lp3425
I3076
aI4230
aI7828
aI9729
asS'CGGTGA'
p3426
(lp3427
I2742
aI7061
asS'GGATCG'
p3428
(lp3429
I917
aI2328
aI3809
aI5807
aI7257
aI8960
aI9267
aI9911
asS'GAAGAG'
p3430
(lp3431
I1344
aI2018
aI2632
aI3627
aI4697
aI5138
aI5295
aI8177
asS'GAAGAA'
p3432
(lp3433
I7424
asS'CGAGAA'
p3434
(lp3435
I1655
aI3073
aI3737
aI5539
aI8347
asS'GAAGAC'
p3436
(lp3437
I999
aI1509
aI6092
aI7427
asS'GGATCA'
p3438
(lp3439
I5282
aI8943
asS'GAATCA'
p3440
(lp3441
I48
asS'GAATCC'
p3442
(lp3443
I308
aI1850
aI3175
aI4799
asS'TCGGAT'
p3444
(lp3445
I5805
aI7255
aI8958
aI9045
aI9909
asS'GAATCG'
p3446
(lp3447
I3733
aI5999
aI9500
asS'ATGGTC'
p3448
(lp3449
I1163
aI1374
aI3842
asS'CAGATG'
p3450
(lp3451
I4387
aI4846
aI6777
aI7873
asS'ACGCCG'
p3452
(lp3453
I1392
asS'TGACCC'
p3454
(lp3455
I1008
aI2303
aI3588
asS'CTATCA'
p3456
(lp3457
I450
aI3080
aI8156
aI8604
aI9143
asS'CAGATC'
p3458
(lp3459
I6582
asS'CTATCC'
p3460
(lp3461
I3225
aI7002
asS'CAGATA'
p3462
(lp3463
I4309
aI5816
aI7266
aI7385
aI8969
aI9920
asS'CTCGAG'
p3464
(lp3465
I809
aI8076
aI8345
asS'CAGATT'
p3466
(lp3467
I5100
asS'CTCGAC'
p3468
(lp3469
I566
aI4092
aI4860
aI8832
asS'ATGGTT'
p3470
(lp3471
I4390
aI4849
aI6780
aI7876
aI9071
asS'TTGTAG'
p3472
(lp3473
I8170
asS'AATGGT'
p3474
(lp3475
I1162
aI1692
asS'GAGGTG'
p3476
(lp3477
I7682
aI8098
asS'CTACGT'
p3478
(lp3479
I602
aI2226
aI3457
aI5508
asS'CCCCGC'
p3480
(lp3481
I4170
aI7589
aI9282
asS'AATGGA'
p3482
(lp3483
I1266
aI3121
aI5279
aI8864
asS'AATGGG'
p3484
(lp3485
I2355
aI2908
aI7306
asS'GATCAA'
p3486
(lp3487
I8944
asS'CCCCGA'
p3488
(lp3489
I2799
aI5536
aI6012
aI6254
aI9584
asS'AATAGA'
p3490
(lp3491
I9363
asS'ACAATA'
p3492
(lp3493
I6167
aI9129
asS'ACGCCC'
p3494
(lp3495
I9242
asS'CGTTAG'
p3496
(lp3497
I1842
aI3460
asS'AGCCAG'
p3498
(lp3499
I2451
aI2660
aI5813
aI7263
aI8966
aI9917
asS'GGAGGG'
p3500
(lp3501
I2889
asS'AAAAGT'
p3502
(lp3503
I3291
aI3634
aI5457
asS'AGCCAC'
p3504
(lp3505
I1478
asS'AGCCAA'
p3506
(lp3507
I1404
asS'TGGTAG'
p3508
(lp3509
I3597
aI5771
aI7436
aI9723
asS'CGCCAT'
p3510
(lp3511
I317
aI2877
aI5678
aI7938
asS'GAGTGT'
p3512
(lp3513
I3261
aI9705
asS'AATAGG'
p3514
(lp3515
I7456
asS'ACGGGA'
p3516
(lp3517
I673
aI2317
aI6651
aI8360
asS'TGGTAA'
p3518
(lp3519
I3345
aI6604
asS'GGAGGT'
p3520
(lp3521
I246
aI2444
aI2581
aI7681
asS'AGCCAT'
p3522
(lp3523
I8240
asS'AAAAGC'
p3524
(lp3525
I4339
aI8384
aI8637
asS'TTGACT'
p3526
(lp3527
I3320
asS'GAGTGG'
p3528
(lp3529
I2066
asS'CGCCAG'
p3530
(lp3531
I2627
aI3847
aI4244
aI6579
asS'CGCCAA'
p3532
(lp3533
I147
aI3332
aI4004
aI6981
asS'GAGTGC'
p3534
(lp3535
I2700
aI5141
aI6832
asS'GAGTGA'
p3536
(lp3537
I1065
aI1349
aI2492
aI6206
asS'GCCAGA'
p3538
(lp3539
I2628
aI5814
aI6580
aI7264
aI8967
aI9918
asS'GCCAGC'
p3540
(lp3541
I3848
aI5977
asS'TACCGA'
p3542
(lp3543
I68
aI2696
aI2939
aI3070
aI5721
aI8369
asS'TACCGC'
p3544
(lp3545
I1884
asS'TACCGG'
p3546
(lp3547
I2620
aI4325
aI7487
asS'GCCCGC'
p3548
(lp3549
I5199
asS'GCCAGT'
p3550
(lp3551
I2452
aI2661
aI4245
asS'GCCCGA'
p3552
(lp3553
I1191
asS'GCCCGG'
p3554
(lp3555
I6296
asS'CTTCAC'
p3556
(lp3557
I4234
aI6306
aI7195
aI8506
aI9605
asS'CTTCAA'
p3558
(lp3559
I7722
aI8903
asS'TACCGT'
p3560
(lp3561
I620
aI3362
aI9754
asS'TCCGAG'
p3562
(lp3563
I9346
asS'TCCGAA'
p3564
(lp3565
I1215
aI3214
aI6191
asS'TCCGAC'
p3566
(lp3567
I2295
aI7395
asS'AATTCA'
p3568
(lp3569
I3098
asS'AATTCC'
p3570
(lp3571
I9580
aI9858
asS'AATTCG'
p3572
(lp3573
I629
asS'TCCGAT'
p3574
(lp3575
I2536
aI3485
asS'ACATAC'
p3576
(lp3577
I1277
asS'TAGCGG'
p3578
(lp3579
I5436
asS'TAGCGA'
p3580
(lp3581
I6646
asS'TAGCGC'
p3582
(lp3583
I7011
asS'GTCATC'
p3584
(lp3585
I1030
aI9475
asS'GTCATA'
p3586
(lp3587
I7367
aI8328
asS'GTCATG'
p3588
(lp3589
I1383
aI9068
asS'ATCTCT'
p3590
(lp3591
I9274
asS'TTGGAC'
p3592
(lp3593
I409
aI1083
aI3958
aI5085
aI7313
aI7466
aI8376
asS'CCAGGT'
p3594
(lp3595
I7377
asS'TTGGAA'
p3596
(lp3597
I6673
asS'TTGGAG'
p3598
(lp3599
I118
aI2442
aI6457
aI6793
asS'AGCAGA'
p3600
(lp3601
I4278
asS'GTCATT'
p3602
(lp3603
I782
aI4480
asS'CCAGGG'
p3604
(lp3605
I1440
aI4077
asS'AGCAGT'
p3606
(lp3607
I647
aI6549
asS'CCAGGA'
p3608
(lp3609
I5134
aI5464
asS'CCAGGC'
p3610
(lp3611
I6249
asS'TTGGAT'
p3612
(lp3613
I6868
asS'ATAGAG'
p3614
(lp3615
I9364
asS'CATCTG'
p3616
(lp3617
I1174
aI1952
asS'ACGGTC'
p3618
(lp3619
I197
aI518
aI845
aI4406
aI4983
aI6180
aI8870
asS'GATCGA'
p3620
(lp3621
I1652
aI2329
aI5808
aI7258
aI8961
aI9912
asS'GATCGC'
p3622
(lp3623
I918
aI3525
aI7583
aI9513
asS'GGATGG'
p3624
(lp3625
I1372
aI9047
asS'GATCGT'
p3626
(lp3627
I340
aI2427
aI3810
aI9268
asS'CATCTT'
p3628
(lp3629
I3514
aI9147
aI9477
aI9602
asS'ATAGAT'
p3630
(lp3631
I1156
aI1566
aI5555
asS'CAAGCG'
p3632
(lp3633
I313
aI3750
aI4741
aI5691
asS'GTTCTT'
p3634
(lp3635
I4143
aI4769
aI5888
asS'ACATGA'
p3636
(lp3637
I230
aI4956
aI5584
asS'CGTAAT'
p3638
(lp3639
I4064
aI7443
asS'ACATGC'
p3640
(lp3641
I3675
aI5973
asS'ACATGG'
p3642
(lp3643
I906
aI4268
asS'CCCGCT'
p3644
(lp3645
I1789
aI5200
aI7342
aI9283
asS'GGCCAT'
p3646
(lp3647
I5748
aI6863
aI7330
asS'CGTAAG'
p3648
(lp3649
I8305
asS'GTTCTG'
p3650
(lp3651
I1397
aI7614
asS'ACATGT'
p3652
(lp3653
I1944
aI4911
aI6319
aI7114
asS'GTTCTA'
p3654
(lp3655
I368
aI6708
aI9800
aI9818
asS'CGTAAA'
p3656
(lp3657
I1035
asS'CCCGCG'
p3658
(lp3659
I2183
aI4171
aI7590
aI9098
asS'ACTCGG'
p3660
(lp3661
I7545
asS'AGGGAC'
p3662
(lp3663
I1640
aI2636
aI3647
aI6229
asS'AGACGC'
p3664
(lp3665
I3581
aI7656
aI7935
aI9240
asS'AGGGAA'
p3666
(lp3667
I5857
aI9589
asS'CCCTTT'
p3668
(lp3669
I5025
aI8925
asS'TGTTGT'
p3670
(lp3671
I4069
asS'TCTTGG'
p3672
(lp3673
I4032
aI6396
aI7704
aI9479
asS'GTTGTT'
p3674
(lp3675
I4393
aI4517
aI5179
aI6328
asS'ATCCTT'
p3676
(lp3677
I5559
aI5716
asS'TTGTCG'
p3678
(lp3679
I22
aI3498
aI3800
aI6463
aI8436
asS'TTGTCC'
p3680
(lp3681
I4071
aI5618
asS'GTTGTA'
p3682
(lp3683
I1184
aI7879
asS'ATCCTA'
p3684
(lp3685
I4679
aI9750
asS'GTTGTC'
p3686
(lp3687
I3497
aI4070
aI6462
asS'ATCCTG'
p3688
(lp3689
I401
aI707
aI1763
aI1777
aI7129
aI9543
asS'GTTGTG'
p3690
(lp3691
I4852
aI6783
asS'TTGTCT'
p3692
(lp3693
I3816
aI5627
aI9967
asS'CCACTG'
p3694
(lp3695
I4966
aI5074
aI9766
asS'TGACTA'
p3696
(lp3697
I3310
aI3321
aI4976
asS'TGGGCC'
p3698
(lp3699
I793
aI3147
aI6861
asS'TGACTC'
p3700
(lp3701
I2508
aI9039
asS'TGGGCA'
p3702
(lp3703
I4271
asS'TGGGCG'
p3704
(lp3705
I7765
asS'TGACTG'
p3706
(lp3707
I5474
aI8041
aI9219
aI9547
asS'AAGCCG'
p3708
(lp3709
I1708
aI3492
aI4240
aI8144
asS'AAGCCC'
p3710
(lp3711
I1039
aI1189
aI7372
aI8714
asS'TGACTT'
p3712
(lp3713
I97
aI3765
aI9085
asS'TGGGCT'
p3714
(lp3715
I4191
aI6339
aI7308
aI8014
asS'CAAAAC'
p3716
(lp3717
I1023
aI3963
aI5090
aI6083
aI7318
aI7471
aI7725
aI9789
asS'CAAAAA'
p3718
(lp3719
I1990
aI4007
asS'AAGCCT'
p3720
(lp3721
I139
aI2254
aI7788
asS'CAAAAG'
p3722
(lp3723
I4338
aI8636
asS'TCAATC'
p3724
(lp3725
I8946
asS'TCAATA'
p3726
(lp3727
I2170
aI9361
asS'CAGTTC'
p3728
(lp3729
I7612
asS'GACCCG'
p3730
(lp3731
I412
aI3589
asS'GACCCA'
p3732
(lp3733
I2304
asS'GACCCC'
p3734
(lp3735
I1009
aI1512
aI2984
asS'CTCTGT'
p3736
(lp3737
I187
aI7210
asS'TCAATT'
p3738
(lp3739
I4298
aI5153
asS'GTTTGG'
p3740
(lp3741
I7946
asS'CTCTGC'
p3742
(lp3743
I324
aI2400
asS'GACCCT'
p3744
(lp3745
I3914
aI7206
asS'CTCTGA'
p3746
(lp3747
I590
aI2520
asS'CTCTGG'
p3748
(lp3749
I790
aI4894
aI7762
aI8018
aI9304
asS'CAGTTT'
p3750
(lp3751
I356
aI5623
aI6966
aI7510
aI8608
asS'GCGAAG'
p3752
(lp3753
I427
aI6090
aI7660
aI8278
asS'ACGTTC'
p3754
(lp3755
I1612
aI2640
aI6310
aI7391
asS'TGCTGG'
p3756
(lp3757
I2036
aI2589
aI7433
asS'TGCTGA'
p3758
(lp3759
I3925
aI5428
aI9216
asS'GAGTCT'
p3760
(lp3761
I1471
aI1720
aI4657
aI9685
asS'TGCTGC'
p3762
(lp3763
I5033
aI6414
aI6417
aI9192
asS'AGCTGC'
p3764
(lp3765
I7668
asS'GCTGGT'
p3766
(lp3767
I7434
asS'GTGATT'
p3768
(lp3769
I5522
asS'ACGTTA'
p3770
(lp3771
I3459
aI4664
aI8554
asS'GCGAAT'
p3772
(lp3773
I2841
aI9673
aI9855
asS'GCCCTT'
p3774
(lp3775
I3051
aI8432
asS'GTGATG'
p3776
(lp3777
I7042
asS'GCTGGG'
p3778
(lp3779
I2051
asS'GTGATC'
p3780
(lp3781
I2425
aI4220
aI7581
asS'GCTGGC'
p3782
(lp3783
I943
aI2574
aI5325
asS'GTGATA'
p3784
(lp3785
I5414
asS'GCTGGA'
p3786
(lp3787
I1369
aI2037
aI2590
aI6123
asS'TGATAA'
p3788
(lp3789
I9678
asS'TGATAC'
p3790
(lp3791
I1465
aI2012
aI5415
asS'TGATAG'
p3792
(lp3793
I6880
asS'CTTGTT'
p3794
(lp3795
I4140
aI6705
asS'GACGGT'
p3796
(lp3797
I517
aI844
aI3023
aI4982
asS'GCTAGG'
p3798
(lp3799
I1123
aI3805
asS'CTTTCA'
p3800
(lp3801
I2210
aI5027
aI5830
aI7280
aI8983
aI9666
aI9934
asS'ATGAAT'
p3802
(lp3803
I3173
asS'GCTAGC'
p3804
(lp3805
I2411
aI5434
aI7009
aI8692
asS'TGATAT'
p3806
(lp3807
I1668
aI2687
aI6988
aI9740
asS'GTAGTG'
p3808
(lp3809
I8172
asS'TTTGGT'
p3810
(lp3811
I2133
aI5526
aI7947
asS'GACGGG'
p3812
(lp3813
I6650
asS'CTTGTG'
p3814
(lp3815
I850
aI1739
aI2422
aI5442
aI8598
aI8682
aI9629
asS'GACGGA'
p3816
(lp3817
I381
aI8813
asS'ATGAAG'
p3818
(lp3819
I488
aI3489
aI4695
aI5586
asS'GACGGC'
p3820
(lp3821
I1643
aI5256
aI9032
asS'CTTGTC'
p3822
(lp3823
I3799
aI8435
asS'GCACTT'
p3824
(lp3825
I4537
asS'GGTGAA'
p3826
(lp3827
I734
aI1847
aI2743
aI6527
aI7062
asS'GGTGAC'
p3828
(lp3829
I95
aI6272
aI9761
asS'TGTAAA'
p3830
(lp3831
I1387
asS'GGTGAG'
p3832
(lp3833
I7167
asS'GGAATG'
p3834
(lp3835
I2368
aI5236
asS'GGCTAA'
p3836
(lp3837
I4193
asS'GGAATC'
p3838
(lp3839
I3732
aI9499
aI9728
asS'TAATGT'
p3840
(lp3841
I4066
aI4463
asS'ACTGTA'
p3842
(lp3843
I546
aI2616
aI4864
asS'GCGTCC'
p3844
(lp3845
I2186
aI5981
asS'GGTGAT'
p3846
(lp3847
I5521
asS'GCGTCG'
p3848
(lp3849
I1335
aI7596
asS'CGTCCG'
p3850
(lp3851
I5982
aI6048
aI9403
asS'GGAATT'
p3852
(lp3853
I3096
aI9578
asS'CGTCCC'
p3854
(lp3855
I2187
aI7600
asS'CGTCCA'
p3856
(lp3857
I6935
asS'CCGTAT'
p3858
(lp3859
I1046
asS'TCGGAG'
p3860
(lp3861
I6143
asS'GAAGTC'
p3862
(lp3863
I429
aI2333
asS'ACGTTT'
p3864
(lp3865
I8338
asS'GCCGTC'
p3866
(lp3867
I266
aI8146
aI9357
asS'GCCGTA'
p3868
(lp3869
I681
aI1452
asS'CCGTAC'
p3870
(lp3871
I1453
aI1802
aI7248
asS'CCGTAA'
p3872
(lp3873
I4063
asS'CCGTAG'
p3874
(lp3875
I682
aI2191
aI3364
aI4573
aI9985
asS'ATTTAA'
p3876
(lp3877
I6872
asS'CAAAGT'
p3878
(lp3879
I3142
aI5834
aI6949
aI7069
aI7284
aI7910
aI8987
aI9938
asS'GCCGTT'
p3880
(lp3881
I1394
aI3494
asS'GAAGTT'
p3882
(lp3883
I365
aI2676
aI3316
aI4609
asS'GGCGCG'
p3884
(lp3885
I910
aI7708
aI7922
asS'ATGCCC'
p3886
(lp3887
I7977
asS'TATTAG'
p3888
(lp3889
I1683
aI4643
aI6114
asS'TATTAA'
p3890
(lp3891
I506
aI1824
aI8542
asS'GGCGCA'
p3892
(lp3893
I2350
aI7890
asS'ACTATG'
p3894
(lp3895
I175
aI3442
asS'CAACGG'
p3896
(lp3897
I5516
aI8939
aI9561
asS'TTTAAG'
p3898
(lp3899
I973
aI2766
aI9850
asS'ACTATC'
p3900
(lp3901
I6914
aI7199
aI8300
asS'ACTATA'
p3902
(lp3903
I223
aI1816
asS'TTTAAC'
p3904
(lp3905
I4613
asS'TATTAT'
p3906
(lp3907
I6424
asS'TTAGTG'
p3908
(lp3909
I4645
aI7555
asS'GGCGCT'
p3910
(lp3911
I3128
aI7767
aI9312
asS'TTAGTC'
p3912
(lp3913
I3275
aI3776
aI6116
asS'ATGCCT'
p3914
(lp3915
I4523
asS'TTAGTA'
p3916
(lp3917
I496
aI5493
aI8930
asS'TTTAAT'
p3918
(lp3919
I484
aI1577
aI6873
aI7531
aI8861
asS'ACTATT'
p3920
(lp3921
I504
aI6112
asS'TTTCCG'
p3922
(lp3923
I2534
aI3212
asS'TTTCCA'
p3924
(lp3925
I2549
aI2994
aI4937
aI6137
asS'CCTGGC'
p3926
(lp3927
I3181
asS'GTTTGT'
p3928
(lp3929
I191
aI3814
aI5625
aI8168
asS'TTTCCT'
p3930
(lp3931
I1836
aI3394
aI8919
asS'GGGCAG'
p3932
(lp3933
I8081
asS'GTCTGT'
p3934
(lp3935
I2263
asS'GGGCAA'
p3936
(lp3937
I4019
aI4107
aI4272
aI6383
asS'GTTTGC'
p3938
(lp3939
I358
aI7123
asS'GTTTGA'
p3940
(lp3941
I7512
asS'GTACGC'
p3942
(lp3943
I3329
aI5496
asS'GTACGA'
p3944
(lp3945
I1627
aI8809
asS'CCGCTC'
p3946
(lp3947
I5201
asS'GCATGT'
p3948
(lp3949
I6624
aI6660
asS'CCGCTA'
p3950
(lp3951
I4885
asS'CCGCTG'
p3952
(lp3953
I1367
aI1790
aI2777
aI6365
aI7901
asS'GCGCGG'
p3954
(lp3955
I1931
aI4126
aI5375
asS'GCGCGC'
p3956
(lp3957
I5321
aI7923
asS'GTCGAT'
p3958
(lp3959
I3949
aI9510
asS'GCATGG'
p3960
(lp3961
I4115
aI5768
asS'GCATGC'
p3962
(lp3963
I3900
aI9120
aI9892
asS'TTATCG'
p3964
(lp3965
I3617
aI6426
aI6485
asS'GCATGA'
p3966
(lp3967
I3585
aI6836
asS'GTCGAC'
p3968
(lp3969
I927
asS'GTCGAA'
p3970
(lp3971
I269
asS'GTCGAG'
p3972
(lp3973
I6183
asS'CGTGGC'
p3974
(lp3975
I4208
aI5288
aI5511
asS'GAGCTA'
p3976
(lp3977
I831
aI1121
aI3304
aI5432
aI9349
aI9429
asS'GAGCTC'
p3978
(lp3979
I8481
asS'ATTGAT'
p3980
(lp3981
I373
aI1359
asS'TGTCCT'
p3982
(lp3983
I2127
asS'AAACGA'
p3984
(lp3985
I4719
aI4778
aI4996
aI9227
asS'AAACGC'
p3986
(lp3987
I1390
aI8121
asS'GTAACA'
p3988
(lp3989
I2808
asS'CACGCG'
p3990
(lp3991
I8493
aI9324
aI9670
asS'AAACGG'
p3992
(lp3993
I8265
aI9791
asS'ATTGAA'
p3994
(lp3995
I305
aI824
aI1606
aI7350
asS'TGCGCG'
p3996
(lp3997
I1332
aI1930
aI4125
aI5320
aI5374
asS'TGTCCA'
p3998
(lp3999
I5619
aI7739
asS'GAGCTT'
p4000
(lp4001
I1544
aI1736
asS'ATTGAG'
p4002
(lp4003
I1733
aI2084
aI6897
asS'TGCGCA'
p4004
(lp4005
I395
aI3678
aI3897
aI3989
asS'CGTTAT'
p4006
(lp4007
I2503
aI4665
asS'AAACGT'
p4008
(lp4009
I1610
aI4012
aI6452
aI6506
aI9165
asS'TGGGTT'
p4010
(lp4011
I2177
aI2357
aI4035
aI6399
aI6432
asS'CACGCC'
p4012
(lp4013
I145
aI2875
asS'TACGCA'
p4014
(lp4015
I2059
asS'ATCAGT'
p4016
(lp4017
I539
aI3088
aI6929
aI8158
aI8606
asS'ATCGGG'
p4018
(lp4019
I7362
aI9502
asS'CATAGT'
p4020
(lp4021
I715
aI1807
aI2561
aI5338
aI9078
asS'GCAGCA'
p4022
(lp4023
I4352
aI4811
aI6742
aI7838
asS'ATCGGA'
p4024
(lp4025
I5190
aI5804
aI6142
aI7202
aI7254
aI8957
aI9908
asS'ATTTCT'
p4026
(lp4027
I5212
asS'TGGGTC'
p4028
(lp4029
I992
aI4510
asS'TTTCGG'
p4030
(lp4031
I7989
asS'TGGGTA'
p4032
(lp4033
I1059
aI9235
aI9384
asS'ATCGGT'
p4034
(lp4035
I6487
asS'ATCAGG'
p4036
(lp4037
I721
aI6024
aI6846
aI9776
asS'ATCAGA'
p4038
(lp4039
I50
aI4543
asS'CATAGA'
p4040
(lp4041
I1155
aI5554
asS'ACGGGT'
p4042
(lp4043
I5518
aI8267
asS'GTCTGA'
p4044
(lp4045
I1722
asS'ATTCGG'
p4046
(lp4047
I2848
aI4158
asS'GATTCT'
p4048
(lp4049
I860
aI3654
aI8727
asS'CTTTTG'
p4050
(lp4051
I1904
aI2131
aI5316
aI5424
asS'TACTAG'
p4052
(lp4053
I607
aI5409
aI6072
asS'TACTAA'
p4054
(lp4055
I2824
aI5449
aI7021
asS'TACTAC'
p4056
(lp4057
I500
aI3455
aI6158
asS'GATTCC'
p4058
(lp4059
I3665
aI4688
asS'GATTCA'
p4060
(lp4061
I385
asS'GATTCG'
p4062
(lp4063
I376
aI3622
aI5965
aI8410
asS'ACGGGC'
p4064
(lp4065
I2047
aI8092
asS'TACTAT'
p4066
(lp4067
I503
aI1815
asS'CTTTTT'
p4068
(lp4069
I1859
asS'ACCAAC'
p4070
(lp4071
I2869
aI3790
aI8455
aI9559
asS'CGTAGA'
p4072
(lp4073
I3203
aI5783
aI7537
asS'TCACGC'
p4074
(lp4075
I144
aI5503
aI8492
aI9323
aI9669
asS'CGATTG'
p4076
(lp4077
I3593
aI5615
asS'TCACGG'
p4078
(lp4079
I453
asS'GCAGCC'
p4080
(lp4081
I6293
aI8289
asS'TCTCAT'
p4082
(lp4083
I2949
aI4528
aI7698
aI9533
asS'TCACGT'
p4084
(lp4085
I3780
aI4662
aI5285
aI6308
aI6443
aI8847
asS'TTCCAC'
p4086
(lp4087
I2550
aI2995
aI3557
asS'TTCCAA'
p4088
(lp4089
I3298
aI4938
aI8569
asS'TTCCAG'
p4090
(lp4091
I3667
aI6247
aI7648
asS'ACCCTT'
p4092
(lp4093
I4137
aI5024
aI8565
asS'ATGCTT'
p4094
(lp4095
I1560
aI3340
aI6493
aI8621
asS'TTCCAT'
p4096
(lp4097
I666
aI1288
aI6138
aI6313
asS'TGAAGC'
p4098
(lp4099
I489
aI3490
aI6529
aI8712
asS'TGAAGA'
p4100
(lp4101
I1343
aI1508
aI4696
aI5587
aI8176
asS'TGAAGG'
p4102
(lp4103
I242
aI1141
aI7352
aI8626
asS'ACCCTG'
p4104
(lp4105
I3915
aI3944
aI3994
aI4560
asS'CTGACT'
p4106
(lp4107
I9038
aI9218
aI9546
asS'CCCCTT'
p4108
(lp4109
I1079
aI3796
asS'AGTTAT'
p4110
(lp4111
I982
aI4248
aI7241
asS'GCGTTA'
p4112
(lp4113
I4052
asS'CTGACC'
p4114
(lp4115
I1724
aI2866
aI7522
aI8789
asS'CTGACA'
p4116
(lp4117
I867
aI3927
aI7104
aI9660
asS'AGTTAA'
p4118
(lp4119
I9160
asS'CCCCTG'
p4120
(lp4121
I1483
aI2683
aI3179
aI6857
aI8199
aI8212
asS'AGTTAC'
p4122
(lp4123
I542
asS'CCCCTC'
p4124
(lp4125
I8073
asS'AGTTAG'
p4126
(lp4127
I2455
asS'CCCCTA'
p4128
(lp4129
I1595
asS'ACACAG'
p4130
(lp4131
I1109
aI4096
aI7507
asS'ACACAA'
p4132
(lp4133
I533
asS'ACACAC'
p4134
(lp4135
I1107
aI1313
aI2736
aI8132
asS'AATGTT'
p4136
(lp4137
I3208
aI4067
aI5650
aI7807
asS'CTGCAG'
p4138
(lp4139
I955
asS'CATGGG'
p4140
(lp4141
I4269
asS'CTGCAC'
p4142
(lp4143
I297
aI326
aI710
aI5477
aI6891
aI8576
aI9194
asS'GCACAT'
p4144
(lp4145
I349
aI712
aI4909
aI6893
asS'AATGTC'
p4146
(lp4147
I4288
aI4489
asS'ACACAT'
p4148
(lp4149
I2558
aI9256
asS'AATGTA'
p4150
(lp4151
I4464
aI5238
asS'GCACAC'
p4152
(lp4153
I3241
aI3681
aI9254
asS'GCACAA'
p4154
(lp4155
I1877
asS'GCACAG'
p4156
(lp4157
I4306
aI8771
asS'CGATTC'
p4158
(lp4159
I3621
aI3653
aI3664
asS'CGAGAT'
p4160
(lp4161
I811
aI8887
asS'ATTACT'
p4162
(lp4163
I1323
aI3386
asS'ACATTG'
p4164
(lp4165
I115
aI870
aI1357
aI6895
aI8392
asS'ACGCTC'
p4166
(lp4167
I4961
asS'ACATTC'
p4168
(lp4169
I5045
aI9635
asS'GTTCGA'
p4170
(lp4171
I125
aI2267
aI2930
aI5852
aI6953
asS'ATGCTC'
p4172
(lp4173
I3411
asS'GTTCGC'
p4174
(lp4175
I1590
aI1614
aI4038
aI6402
aI6680
aI8819
asS'CGAGAC'
p4176
(lp4177
I2705
asS'GTTCGG'
p4178
(lp4179
I473
aI2360
aI2569
aI7713
aI7753
asS'AAGTCT'
p4180
(lp4181
I430
aI2334
aI5880
asS'ACCCTA'
p4182
(lp4183
I5266
asS'GCTATT'
p4184
(lp4185
I1822
asS'GGACAT'
p4186
(lp4187
I1355
aI8390
asS'GCTATA'
p4188
(lp4189
I2883
aI4887
asS'GCTATC'
p4190
(lp4191
I449
aI7001
aI8603
aI9655
asS'AAGTCG'
p4192
(lp4193
I5127
aI5836
aI7286
aI8989
aI9940
asS'AAGTCA'
p4194
(lp4195
I3636
asS'GCTATG'
p4196
(lp4197
I3306
aI7813
aI9351
aI9440
asS'AAGTCC'
p4198
(lp4199
I8
aI2795
aI5459
aI7744
asS'GGACAC'
p4200
(lp4201
I1094
asS'GGACAA'
p4202
(lp4203
I2040
aI3960
aI5087
aI5917
aI7315
aI7468
aI9127
asS'GCACCT'
p4204
(lp4205
I9196
asS'AGGGTT'
p4206
(lp4207
I559
aI1754
aI7563
asS'GAGGCG'
p4208
(lp4209
I2025
aI9006
asS'TGTTGG'
p4210
(lp4211
I989
asS'GAGGCA'
p4212
(lp4213
I634
aI1270
aI1533
aI7906
aI9293
asS'AGCGCT'
p4214
(lp4215
I5693
asS'GAGGCC'
p4216
(lp4217
I2496
aI7035
asS'TGTTGC'
p4218
(lp4219
I7809
aI9189
asS'TTCTCA'
p4220
(lp4221
I4383
aI4842
aI6773
aI7869
aI9532
asS'ACTCGA'
p4222
(lp4223
I7824
asS'TAAAAT'
p4224
(lp4225
I6925
aI8545
asS'ACTCGC'
p4226
(lp4227
I6656
asS'TGTATA'
p4228
(lp4229
I4415
aI4639
asS'AGCGCA'
p4230
(lp4231
I1917
aI4349
aI4808
aI6739
aI7012
aI7835
aI9889
aI9960
asS'GAGGCT'
p4232
(lp4233
I2437
aI6067
aI7406
asS'AGCGCC'
p4234
(lp4235
I207
aI315
aI959
aI5595
aI5606
aI9374
aI9465
asS'AGGGTG'
p4236
(lp4237
I3283
asS'AGGGTA'
p4238
(lp4239
I1144
aI4566
aI7138
asS'AGCGCG'
p4240
(lp4241
I6827
aI9338
asS'AGGGTC'
p4242
(lp4243
I1419
aI8248
asS'TAAAAG'
p4244
(lp4245
I5456
asS'ACTCGT'
p4246
(lp4247
I2237
aI3219
aI3884
aI8580
asS'TAAAAC'
p4248
(lp4249
I1208
aI2818
aI4419
aI7024
aI9163
asS'GATGAG'
p4250
(lp4251
I7044
aI9426
asS'ACCCTC'
p4252
(lp4253
I768
aI6260
aI7207
asS'TAGGGA'
p4254
(lp4255
I1639
aI9701
asS'CTACTA'
p4256
(lp4257
I502
aI1814
aI2823
aI3454
aI5408
aI5448
aI6071
aI7020
asS'TAGGGC'
p4258
(lp4259
I1125
aI4017
aI6381
asS'ACGTTG'
p4260
(lp4261
I4187
aI6454
aI8765
asS'AGCTGG'
p4262
(lp4263
I6122
asS'TAGGGG'
p4264
(lp4265
I1715
aI2472
aI3367
asS'AGTGCG'
p4266
(lp4267
I650
aI967
aI1197
aI2701
aI9173
asS'AGTGCA'
p4268
(lp4269
I4589
aI5142
aI6833
aI7557
aI8648
asS'AGAGTT'
p4270
(lp4271
I122
aI152
asS'AGTGCC'
p4272
(lp4273
I611
aI2770
aI4647
aI5196
asS'AAAACC'
p4274
(lp4275
I5065
aI7025
asS'TAGGGT'
p4276
(lp4277
I7137
asS'AGCTGT'
p4278
(lp4279
I2967
aI3429
aI4216
aI4636
aI9989
asS'CTACTT'
p4280
(lp4281
I6160
aI6614
asS'AGTGCT'
p4282
(lp4283
I8745
aI9437
asS'AGAGTC'
p4284
(lp4285
I2166
aI4281
aI4656
aI9684
asS'AGAGTA'
p4286
(lp4287
I2935
aI4459
aI5297
aI9420
asS'AGAGTG'
p4288
(lp4289
I1064
aI1348
aI5140
asS'TAACCC'
p4290
(lp4291
I8070
asS'GTTAAA'
p4292
(lp4293
I3879
aI5760
aI9161
asS'GCACCA'
p4294
(lp4295
I3034
aI8651
aI9369
asS'GTTAAC'
p4296
(lp4297
I277
asS'CCTGGA'
p4298
(lp4299
I403
aI1963
asS'CCTGGG'
p4300
(lp4301
I5244
aI6859
aI9873
asS'GTTAAG'
p4302
(lp4303
I344
aI6628
asS'TTCGTC'
p4304
(lp4305
I2643
aI5048
asS'CTAATC'
p4306
(lp4307
I5713
asS'GTCTGG'
p4308
(lp4309
I4047
asS'GTCTGC'
p4310
(lp4311
I1229
aI4920
aI6411
aI7050
asS'GTTAAT'
p4312
(lp4313
I8556
asS'CCTGGT'
p4314
(lp4315
I1485
asS'ACCGCT'
p4316
(lp4317
I4884
asS'GGAAGG'
p4318
(lp4319
I3124
aI3714
aI6675
asS'CCACAT'
p4320
(lp4321
I113
asS'GGAAGA'
p4322
(lp4323
I5137
asS'TGTATT'
p4324
(lp4325
I1284
aI3982
aI9708
asS'CAATGA'
p4326
(lp4327
I1462
aI3762
asS'GCGTTC'
p4328
(lp4329
I7711
asS'CAATGC'
p4330
(lp4331
I7400
aI9453
asS'GCGTTG'
p4332
(lp4333
I1504
asS'CAATGG'
p4334
(lp4335
I2354
aI3120
asS'ATGCTG'
p4336
(lp4337
I2035
aI3924
aI5032
asS'GGAAGT'
p4338
(lp4339
I4608
aI5193
aI8537
aI9591
asS'CCACAC'
p4340
(lp4341
I743
aI2152
aI2556
aI2997
aI3559
asS'ATGCTA'
p4342
(lp4343
I56
aI2881
aI5394
asS'AAACCA'
p4344
(lp4345
I1170
aI5875
aI6079
asS'TCCTCG'
p4346
(lp4347
I1838
aI4619
asS'TGTATG'
p4348
(lp4349
I9107
asS'CAATGT'
p4350
(lp4351
I4488
aI5649
asS'GCGTTT'
p4352
(lp4353
I970
aI1832
aI2465
asS'TCCTCC'
p4354
(lp4355
I8921
asS'TGTATC'
p4356
(lp4357
I3436
aI5018
aI5825
aI7275
aI8978
aI9929
asS'GTGAAT'
p4358
(lp4359
I735
aI1848
aI2744
aI3784
aI8721
asS'TAACCG'
p4360
(lp4361
I1872
asS'TTCGTG'
p4362
(lp4363
I1979
asS'CGTTAC'
p4364
(lp4365
I2430
aI3887
aI4053
asS'TTCGTA'
p4366
(lp4367
I1679
aI6642
asS'CGTTAA'
p4368
(lp4369
I276
aI343
aI8555
asS'TAACCA'
p4370
(lp4371
I279
aI740
aI799
aI2827
aI3837
asS'CCTGTG'
p4372
(lp4373
I1779
aI3996
aI4734
aI7039
aI8214
aI9212
asS'TTCGTT'
p4374
(lp4375
I2566
aI6437
aI8412
asS'TCATAT'
p4376
(lp4377
I8329
asS'TAACCT'
p4378
(lp4379
I2711
aI3266
aI5573
aI8785
asS'GTGAAG'
p4380
(lp4381
I241
aI6528
aI8175
asS'GTGAAA'
p4382
(lp4383
I1235
aI6208
aI8032
asS'GTGAAC'
p4384
(lp4385
I5708
aI7063
asS'CAATAG'
p4386
(lp4387
I6373
aI9130
aI9362
asS'AACCCG'
p4388
(lp4389
I7450
asS'ACCGCA'
p4390
(lp4391
I1874
aI1885
aI6233
asS'CCCTAT'
p4392
(lp4393
I5267
asS'ACCGCC'
p4394
(lp4395
I4002
aI5676
aI8589
asS'AGATCC'
p4396
(lp4397
I5557
aI6583
asS'AGGCTT'
p4398
(lp4399
I662
aI1527
aI2438
asS'GTTGCA'
p4400
(lp4401
I9074
asS'AACGAA'
p4402
(lp4403
I1938
aI7083
asS'GTTGCC'
p4404
(lp4405
I2679
asS'GTGCCG'
p4406
(lp4407
I264
aI2137
aI6977
asS'GTGCCA'
p4408
(lp4409
I612
aI2200
aI4737
aI7357
asS'GTGCCC'
p4410
(lp4411
I5197
aI8739
asS'CCTTCA'
p4412
(lp4413
I3053
aI3269
aI7721
aI8505
asS'AGGCTA'
p4414
(lp4415
I6068
aI7017
aI9298
asS'CCTTCC'
p4416
(lp4417
I8312
aI8422
aI8426
aI8567
asS'CCGCCC'
p4418
(lp4419
I1298
aI8430
asS'AACGAC'
p4420
(lp4421
I4720
asS'CCTTCG'
p4422
(lp4423
I3397
aI4436
asS'AGGCTG'
p4424
(lp4425
I941
aI7407
asS'GTGCCT'
p4426
(lp4427
I2771
aI4648
aI9845
asS'TCCAAA'
p4428
(lp4429
I4939
aI8570
asS'GTTGCT'
p4430
(lp4431
I562
aI7758
aI7810
aI9190
asS'AGCCCC'
p4432
(lp4433
I7373
aI8715
asS'GGATAT'
p4434
(lp4435
I6560
aI9694
asS'TCGGGT'
p4436
(lp4437
I4160
aI6324
aI7363
asS'GAAGCT'
p4438
(lp4439
I490
aI5957
aI6016
aI6530
aI8280
asS'GGATAA'
p4440
(lp4441
I1205
aI6348
asS'GGATAC'
p4442
(lp4443
I7484
aI9445
asS'TCGGGG'
p4444
(lp4445
I3501
aI9503
asS'GGATAG'
p4446
(lp4447
I4130
asS'GAAGCG'
p4448
(lp4449
I4806
aI6737
asS'CCGCCT'
p4450
(lp4451
I8590
asS'GCAGTG'
p4452
(lp4453
I648
aI965
aI4042
aI6406
aI6550
asS'GAAGCC'
p4454
(lp4455
I3491
aI7787
aI8713
asS'GCAGTA'
p4456
(lp4457
I89
aI936
aI3541
aI4321
aI5841
aI7291
aI8994
aI9945
asS'GAAGCA'
p4458
(lp4459
I7662
asS'GCAGTC'
p4460
(lp4461
I1536
asS'GAGAGC'
p4462
(lp4463
I1914
aI6798
aI8237
asS'GAGAGA'
p4464
(lp4465
I1912
aI2021
aI3578
aI6796
aI8180
asS'CGCCCC'
p4466
(lp4467
I1593
aI4168
aI7586
aI9243
asS'CGCCCA'
p4468
(lp4469
I3381
aI5131
aI9376
asS'ACGTAA'
p4470
(lp4471
I2806
asS'GCATTG'
p4472
(lp4473
I438
aI1984
asS'ACGCAC'
p4474
(lp4475
I3163
asS'GCATTA'
p4476
(lp4477
I3474
aI4784
aI7235
asS'CTCGCA'
p4478
(lp4479
I6657
asS'CGCCCT'
p4480
(lp4481
I1299
aI8431
asS'CCCTAG'
p4482
(lp4483
I1596
asS'CTATAT'
p4484
(lp4485
I224
asS'AGTTTC'
p4486
(lp4487
I154
asS'GCCGGG'
p4488
(lp4489
I7178
asS'AGCATC'
p4490
(lp4491
I6187
aI6513
aI6901
aI9540
asS'TACCCG'
p4492
(lp4493
I7340
asS'CATGTT'
p4494
(lp4495
I1675
aI1945
aI4912
aI5751
aI6625
aI7982
asS'GCCGGA'
p4496
(lp4497
I2578
aI8050
aI8260
asS'CCGGCG'
p4498
(lp4499
I7888
asS'ACGTAG'
p4500
(lp4501
I3001
aI4014
aI5636
aI9249
asS'CATGTA'
p4502
(lp4503
I1385
aI7115
asS'CATGTC'
p4504
(lp4505
I4477
aI6320
asS'GCCGGT'
p4506
(lp4507
I1710
aI2196
aI6054
aI8008
aI8292
asS'GAGATT'
p4508
(lp4509
I8888
asS'CATGTG'
p4510
(lp4511
I6661
aI9380
asS'TACCCC'
p4512
(lp4513
I5387
aI6010
aI7883
aI8197
aI8210
asS'GGCCTG'
p4514
(lp4515
I3149
aI7037
aI9035
asS'GGCCTC'
p4516
(lp4517
I2498
aI7416
asS'GGCCTA'
p4518
(lp4519
I795
aI1522
aI3505
aI5259
aI9140
asS'AATCGG'
p4520
(lp4521
I9501
asS'AATCGC'
p4522
(lp4523
I6000
aI6289
asS'AATCGA'
p4524
(lp4525
I3734
asS'TTCCCA'
p4526
(lp4527
I4690
asS'GGCCTT'
p4528
(lp4529
I83
aI2893
aI4329
aI8138
aI8310
asS'TCACTA'
p4530
(lp4531
I201
aI3440
aI6912
aI7197
asS'TCACTC'
p4532
(lp4533
I522
aI5364
aI6812
aI8676
asS'ATCGGC'
p4534
(lp4535
I6589
asS'AATCGT'
p4536
(lp4537
I7534
asS'AGCCGA'
p4538
(lp4539
I2959
aI3661
asS'GAGCGT'
p4540
(lp4541
I5000
asS'AGCCGC'
p4542
(lp4543
I1621
aI4241
aI6363
aI6884
asS'TAATTG'
p4544
(lp4545
I5847
aI6942
asS'TAATTA'
p4546
(lp4547
I166
aI1148
aI8558
asS'AGCCGG'
p4548
(lp4549
I1709
aI2195
aI8291
asS'GTTTTT'
p4550
(lp4551
I2467
aI3189
aI7985
asS'TGGTGA'
p4552
(lp4553
I7166
aI9760
asS'GATGGA'
p4554
(lp4555
I1255
aI9486
asS'TGGTGC'
p4556
(lp4557
I2135
asS'CCAAGT'
p4558
(lp4559
I6
aI2793
aI5878
aI7742
asS'GGGCTG'
p4560
(lp4561
I2049
asS'GATGGG'
p4562
(lp4563
I9048
asS'GTTTTC'
p4564
(lp4565
I1834
aI3392
aI4935
aI8340
asS'GAGCGG'
p4566
(lp4567
I2087
aI2346
asS'GGGCTC'
p4568
(lp4569
I2852
aI6340
aI7181
aI8015
asS'GTTTTG'
p4570
(lp4571
I5653
asS'GTTCAA'
p4572
(lp4573
I1757
aI3355
aI8528
asS'GAGCGC'
p4574
(lp4575
I1916
aI9959
asS'ATCACA'
p4576
(lp4577
I6516
asS'CCAAGG'
p4578
(lp4579
I79
aI2203
aI9647
asS'CTACAT'
p4580
(lp4581
I9599
asS'TCTCAG'
p4582
(lp4583
I4384
aI4843
aI5743
aI6774
aI6823
aI7692
aI7870
aI9970
asS'CCAAGC'
p4584
(lp4585
I137
aI312
aI4740
asS'TGGTGT'
p4586
(lp4587
I466
aI1694
aI5357
asS'CCAAGA'
p4588
(lp4589
I149
aI3300
aI5734
asS'ATTCGT'
p4590
(lp4591
I5047
aI8411
asS'AGAACT'
p4592
(lp4593
I692
asS'CAAAGA'
p4594
(lp4595
I4941
aI8406
asS'CCGCCA'
p4596
(lp4597
I4003
aI4243
aI5677
aI6980
asS'TACCAT'
p4598
(lp4599
I2004
aI4788
aI6200
asS'GTATCC'
p4600
(lp4601
I4569
asS'AGATAG'
p4602
(lp4603
I878
aI4701
asS'ACCCGG'
p4604
(lp4605
I1518
asS'ACCCGA'
p4606
(lp4607
I413
aI3590
aI7451
asS'ATGTCT'
p4608
(lp4609
I4289
aI4490
aI9110
asS'ACCCGC'
p4610
(lp4611
I1788
aI7341
asS'AGATAA'
p4612
(lp4613
I1158
aI5590
aI5786
aI6717
aI7089
aI7386
asS'TACCAC'
p4614
(lp4615
I2119
asS'AGAACG'
p4616
(lp4617
I1657
aI3256
aI5541
asS'TACCAA'
p4618
(lp4619
I4
aI77
aI135
aI581
aI3789
asS'AGAACA'
p4620
(lp4621
I4199
aI8349
asS'TACCAG'
p4622
(lp4623
I1456
asS'AGAACC'
p4624
(lp4625
I3739
aI5737
asS'ACCAGC'
p4626
(lp4627
I1457
aI5659
aI8653
aI9371
asS'CACTGG'
p4628
(lp4629
I1316
aI2243
aI4967
aI5075
aI5480
aI6097
aI9767
asS'AGATAT'
p4630
(lp4631
I1568
aI4310
asS'TGACAA'
p4632
(lp4633
I2217
aI6165
aI6731
aI7105
aI8936
asS'CCTATA'
p4634
(lp4635
I5261
asS'CACTGC'
p4636
(lp4637
I5053
aI8509
asS'ATGTCG'
p4638
(lp4639
I815
aI6321
asS'CAGCGT'
p4640
(lp4641
I1830
aI5979
asS'GAGTCA'
p4642
(lp4643
I2167
aI4282
asS'AATTAT'
p4644
(lp4645
I2844
aI4300
aI4447
asS'GTAACC'
p4646
(lp4647
I3265
aI8069
asS'CTGTTC'
p4648
(lp4649
I2265
asS'CGGGTT'
p4650
(lp4651
I5330
aI6325
aI6476
aI8268
asS'CGTCTT'
p4652
(lp4653
I7155
aI8109
asS'AATTAC'
p4654
(lp4655
I167
aI8356
asS'TAGGTG'
p4656
(lp4657
I93
aI732
aI881
aI1845
aI7793
asS'AATTAG'
p4658
(lp4659
I1149
aI1996
asS'TAGGTC'
p4660
(lp4661
I2858
aI4315
aI4670
aI7458
aI7688
asS'CGGGTC'
p4662
(lp4663
I779
aI2090
aI7364
asS'CTGTTT'
p4664
(lp4665
I189
aI3390
aI5697
asS'CGGGTA'
p4666
(lp4667
I1897
aI3939
aI4161
asS'CGGGTG'
p4668
(lp4669
I4506
aI5519
asS'CTTCGG'
p4670
(lp4671
I3236
aI4437
aI9088
asS'AAGTAA'
p4672
(lp4673
I976
aI7912
asS'CATTAC'
p4674
(lp4675
I3385
aI3475
aI4785
asS'TTAGGG'
p4676
(lp4677
I1638
aI2471
asS'ATATAT'
p4678
(lp4679
I418
aI2143
aI2944
aI3977
aI4595
aI6242
aI6990
asS'AGCAAC'
p4680
(lp4681
I3829
aI4469
asS'TTAGGC'
p4682
(lp4683
I2111
aI8612
asS'AAAGCT'
p4684
(lp4685
I5399
asS'TTAGGA'
p4686
(lp4687
I1685
aI4773
aI9496
asS'CATGCA'
p4688
(lp4689
I3901
aI7333
aI8486
aI9121
asS'AAAGCA'
p4690
(lp4691
I3827
aI4276
aI4340
aI4906
aI7968
asS'AAAGCC'
p4692
(lp4693
I1038
aI1707
asS'TTAGGT'
p4694
(lp4695
I1844
asS'ATATAA'
p4696
(lp4697
I8549
asS'AGCAAT'
p4698
(lp4699
I1460
aI3606
aI5647
aI6371
aI9451
asS'ATATAC'
p4700
(lp4701
I226
aI617
aI1050
aI1570
aI8515
asS'ATAGCA'
p4702
(lp4703
I645
aI3604
aI9132
asS'TACTTA'
p4704
(lp4705
I3890
aI4148
aI8206
asS'TACTTG'
p4706
(lp4707
I6161
asS'ATAGCG'
p4708
(lp4709
I4761
asS'TCTCAC'
p4710
(lp4711
I2375
aI3757
aI3819
aI4660
aI5531
asS'TGCTAA'
p4712
(lp4713
I57
aI5395
asS'ATAGCT'
p4714
(lp4715
I1819
asS'TACTTT'
p4716
(lp4717
I1325
aI1573
asS'CGCATA'
p4718
(lp4719
I7571
asS'CGAGTT'
p4720
(lp4721
I5176
aI8372
asS'CGTACT'
p4722
(lp4723
I605
asS'TCCCGT'
p4724
(lp4725
I2189
aI6045
aI7246
asS'TATGCT'
p4726
(lp4727
I1559
aI3339
aI3923
aI6492
asS'CTTAAG'
p4728
(lp4729
I4150
aI5643
aI8141
aI9567
aI9611
asS'ACATAA'
p4730
(lp4731
I3823
asS'CTTAAA'
p4732
(lp4733
I5938
asS'ACATAG'
p4734
(lp4735
I714
aI1806
aI2560
asS'CTTAAC'
p4736
(lp4737
I1870
aI3250
aI5571
aI8783
asS'TCCAAG'
p4738
(lp4739
I311
aI3299
aI7741
asS'CGTACC'
p4740
(lp4741
I1454
asS'TTGTTA'
p4742
(lp4743
I4394
aI4518
aI6329
aI9493
asS'CGAGTA'
p4744
(lp4745
I657
aI2270
aI5664
aI8470
asS'CGAGTC'
p4746
(lp4747
I1470
aI1630
asS'AGGGGA'
p4748
(lp4749
I1716
aI9575
asS'CTTAAT'
p4750
(lp4751
I1773
aI5208
aI9287
asS'AGGGGC'
p4752
(lp4753
I4105
aI7413
asS'TATGCA'
p4754
(lp4755
I4303
aI5897
asS'AGGGGG'
p4756
(lp4757
I2473
aI3368
aI4079
aI6523
aI9974
asS'CGTTTG'
p4758
(lp4759
I3813
asS'TCGGGC'
p4760
(lp4761
I2362
aI2850
asS'TTGTAA'
p4762
(lp4763
I873
aI1185
asS'TTGTAC'
p4764
(lp4765
I193
aI7880
aI8366
asS'TCATTG'
p4766
(lp4767
I783
aI6335
aI6619
asS'TGAATC'
p4768
(lp4769
I307
aI1849
aI3174
asS'CGACTA'
p4770
(lp4771
I1308
asS'TGAATA'
p4772
(lp4773
I736
aI2745
aI3785
asS'CGACTC'
p4774
(lp4775
I2235
aI8778
aI9342
asS'TGAATG'
p4776
(lp4777
I3536
aI8722
asS'AAGTAT'
p4778
(lp4779
I8539
asS'CGACTG'
p4780
(lp4781
I1099
aI4862
aI6277
asS'TTGTAT'
p4782
(lp4783
I9106
asS'ATCGTG'
p4784
(lp4785
I261
aI6428
asS'GCTTCG'
p4786
(lp4787
I3235
aI9838
asS'ATCGTC'
p4788
(lp4789
I5778
asS'GCTTCC'
p4790
(lp4791
I664
aI1546
aI3131
asS'TGGGAG'
p4792
(lp4793
I8021
asS'TGGGAC'
p4794
(lp4795
I841
aI5246
aI8417
asS'ATCGTT'
p4796
(lp4797
I341
aI2428
aI3811
aI8525
asS'ACAACG'
p4798
(lp4799
I8938
asS'TGGGAT'
p4800
(lp4801
I1319
aI9551
asS'CTAGCC'
p4802
(lp4803
I1435
asS'GACCAT'
p4804
(lp4805
I4547
asS'CTAGCG'
p4806
(lp4807
I5435
aI7010
asS'CGGTAG'
p4808
(lp4809
I1712
aI9407
asS'ACTTAG'
p4810
(lp4811
I3767
aI5943
asS'ACTTAA'
p4812
(lp4813
I4149
asS'CGGTAC'
p4814
(lp4815
I7503
aI7716
asS'ACTTAC'
p4816
(lp4817
I695
aI5351
aI6961
aI8207
asS'CGGTAA'
p4818
(lp4819
I34
aI2095
asS'GACCAG'
p4820
(lp4821
I5658
asS'GACCAC'
p4822
(lp4823
I111
aI4899
aI9764
asS'GACCAA'
p4824
(lp4825
I1069
aI2868
aI2916
asS'TACACC'
p4826
(lp4827
I896
aI9208
aI9981
asS'CGGTAT'
p4828
(lp4829
I4745
aI6005
aI6489
asS'TACACA'
p4830
(lp4831
I1312
aI7506
aI8131
asS'TACACG'
p4832
(lp4833
I9388
asS'GCGAGA'
p4834
(lp4835
I2704
aI8235
asS'GCGAGC'
p4836
(lp4837
I1618
aI9009
asS'GCTGAG'
p4838
(lp4839
I5429
aI6367
aI7409
aI7903
asS'GCGAGG'
p4840
(lp4841
I922
aI5793
aI6065
aI7404
aI8096
asS'GAACTT'
p4842
(lp4843
I693
aI5349
aI7960
asS'CAGCCC'
p4844
(lp4845
I6294
asS'GCGAGT'
p4846
(lp4847
I5175
aI5663
aI6830
aI8469
asS'GAGAGG'
p4848
(lp4849
I2023
aI4102
aI7033
aI9572
asS'GAACTC'
p4850
(lp4851
I3217
asS'GAACTA'
p4852
(lp4853
I5485
aI5710
aI6110
asS'CACCTA'
p4854
(lp4855
I3102
aI9197
asS'AACTAT'
p4856
(lp4857
I6111
asS'CACCTC'
p4858
(lp4859
I4725
asS'CACCTG'
p4860
(lp4861
I283
aI3244
aI4732
aI9210
asS'TGATCC'
p4862
(lp4863
I9748
asS'AACACT'
p4864
(lp4865
I479
aI2810
aI6668
aI9024
asS'TGATCG'
p4866
(lp4867
I339
aI1651
aI2426
aI3524
aI7582
asS'CTATAG'
p4868
(lp4869
I1817
aI2884
asS'GGACTG'
p4870
(lp4871
I4177
aI6126
asS'CACCTT'
p4872
(lp4873
I9527
aI9608
asS'AACTAC'
p4874
(lp4875
I2821
aI5486
asS'AACTAA'
p4876
(lp4877
I640
aI5453
aI5711
aI6569
asS'AACACG'
p4878
(lp4879
I2044
aI7728
aI8458
asS'AACACA'
p4880
(lp4881
I2735
asS'CGTCTC'
p4882
(lp4883
I3417
aI5951
asS'AACACC'
p4884
(lp4885
I2486
aI8452
asS'TGATCT'
p4886
(lp4887
I233
aI1361
aI2372
aI4221
asS'AAAGAC'
p4888
(lp4889
I2981
aI5253
aI7494
aI7654
asS'CTATAC'
p4890
(lp4891
I5262
aI9821
asS'CAACAG'
p4892
(lp4893
I4603
aI5602
aI7609
asS'GACAGT'
p4894
(lp4895
I7220
asS'CAACAA'
p4896
(lp4897
I1921
aI5688
aI6285
asS'CAACAC'
p4898
(lp4899
I2043
aI8457
asS'GGCCGG'
p4900
(lp4901
I2577
aI6053
aI8007
aI8049
asS'CTATAA'
p4902
(lp4903
I4888
asS'GACAGG'
p4904
(lp4905
I7497
aI7676
asS'ATATCC'
p4906
(lp4907
I1670
aI2145
asS'GACAGC'
p4908
(lp4909
I3449
aI9886
asS'GACAGA'
p4910
(lp4911
I1261
asS'GTATTA'
p4912
(lp4913
I1682
aI8541
asS'GTATTC'
p4914
(lp4915
I1285
aI4156
asS'GTAAGT'
p4916
(lp4917
I5125
asS'ATATCA'
p4918
(lp4919
I6992
asS'AGAGGT'
p4920
(lp4921
I5160
asS'TCCCCT'
p4922
(lp4923
I1078
aI3178
aI6856
asS'GGTGGA'
p4924
(lp4925
I3285
asS'TATCTT'
p4926
(lp4927
I5827
aI7277
aI8595
aI8980
aI9931
asS'GGTGGG'
p4928
(lp4929
I839
aI3722
aI4508
aI6695
asS'AGAGGC'
p4930
(lp4931
I2024
aI7034
asS'GTAAGA'
p4932
(lp4933
I687
aI875
aI2097
asS'AGAGGA'
p4934
(lp4935
I3629
aI9264
aI9691
asS'GTAAGC'
p4936
(lp4937
I1187
aI9462
asS'AGAGGG'
p4938
(lp4939
I2634
aI4103
aI9573
asS'GTAAGG'
p4940
(lp4941
I1698
aI8306
asS'TCCCCG'
p4942
(lp4943
I2798
aI9583
asS'CGTCAC'
p4944
(lp4945
I773
aI2240
aI5050
aI5501
aI6810
aI6910
aI8462
asS'TCCCCC'
p4946
(lp4947
I2148
aI9280
asS'GGTGGT'
p4948
(lp4949
I9721
asS'CGTCAG'
p4950
(lp4951
I623
aI4358
aI4817
aI6748
aI7844
aI8148
asS'GTCGCG'
p4952
(lp4953
I24
aI572
aI6690
aI7173
asS'GTCGCA'
p4954
(lp4955
I3278
aI4318
aI5838
aI7232
aI7288
aI8318
aI8991
aI9942
asS'GTCGCC'
p4956
(lp4957
I2625
aI3379
aI3845
aI5129
aI8438
asS'CCGTCT'
p4958
(lp4959
I3416
asS'TCGGTA'
p4960
(lp4961
I33
aI2094
aI6488
aI7715
asS'GAGAGT'
p4962
(lp4963
I121
aI1347
aI2934
aI4458
aI4655
asS'TCGGTG'
p4964
(lp4965
I7952
aI9719
asS'GTCGCT'
p4966
(lp4967
I2971
aI3802
aI5164
aI6465
aI7461
asS'CCGTCG'
p4968
(lp4969
I267
aI8316
asS'CCGTCA'
p4970
(lp4971
I622
aI6809
aI8147
aI9358
asS'TCGGTT'
p4972
(lp4973
I3876
aI7755
asS'GGCTGT'
p4974
(lp4975
I457
aI5011
aI7993
asS'CGCGTG'
p4976
(lp4977
I912
aI9842
asS'ACGCAT'
p4978
(lp4979
I3583
aI7570
asS'CGCGTC'
p4980
(lp4981
I1334
aI2185
aI5499
aI9472
asS'CGCGTA'
p4982
(lp4983
I1624
aI5986
asS'ATGCAG'
p4984
(lp4985
I934
aI3539
aI3902
aI9122
asS'CCACTA'
p4986
(lp4987
I8298
asS'CCACTC'
p4988
(lp4989
I1491
asS'CGCGTT'
p4990
(lp4991
I1503
aI7710
asS'GGCTGG'
p4992
(lp4993
I942
aI2050
aI2573
asS'GGCTGA'
p4994
(lp4995
I1340
aI5345
aI7102
aI7408
asS'GGCTGC'
p4996
(lp4997
I5079
asS'ATGCAT'
p4998
(lp4999
I5898
aI8487
asS'ATGACG'
p5000
(lp5001
I3160
aI4958
aI8752
asS'GGAGTT'
p5002
(lp5003
I6459
aI8816
asS'ATGACA'
p5004
(lp5005
I6730
aI8935
asS'TTTGTG'
p5006
(lp5007
I8839
aI9813
asS'ATGACC'
p5008
(lp5009
I1007
aI2302
aI3587
asS'CCTGAT'
p5010
(lp5011
I1649
aI2685
asS'GGGCCT'
p5012
(lp5013
I794
aI2892
aI3148
aI3504
aI7415
asS'ATGACT'
p5014
(lp5015
I2507
aI3309
aI3764
aI4975
aI8040
aI9084
asS'GGAGTA'
p5016
(lp5017
I1702
aI5122
aI5797
aI8053
asS'GGAGTC'
p5018
(lp5019
I1719
asS'GGAGTG'
p5020
(lp5021
I2065
aI9704
asS'GGGCCG'
p5022
(lp5023
I1450
aI3371
aI8048
aI9052
asS'GGGCCC'
p5024
(lp5025
I1127
aI6028
aI8795
asS'GGGCCA'
p5026
(lp5027
I2480
aI6862
aI8759
asS'GGCAAG'
p5028
(lp5029
I3184
asS'ACGAGT'
p5030
(lp5031
I656
aI1469
aI1629
aI3259
asS'GCGCAA'
p5032
(lp5033
I396
aI1918
aI2351
asS'AGGCCC'
p5034
(lp5035
I254
aI3049
aI6251
asS'GCGCAG'
p5036
(lp5037
I4350
aI4809
aI6740
aI7013
aI7836
asS'ACGAGG'
p5038
(lp5039
I39
asS'ACGAGC'
p5040
(lp5041
I829
aI1119
aI3426
aI4633
aI4780
aI4998
asS'ACGAGA'
p5042
(lp5043
I8886
asS'CTGATG'
p5044
(lp5045
I3564
aI6727
asS'AGGCCT'
p5046
(lp5047
I82
aI2497
aI7036
aI8309
aI9139
asS'GCTCTA'
p5048
(lp5049
I2854
aI8153
aI9806
asS'ACATCT'
p5050
(lp5051
I9601
asS'GGGTTG'
p5052
(lp5053
I560
aI6326
aI6477
aI7564
asS'TTTGGG'
p5054
(lp5055
I8732
aI9233
asS'TGCGAT'
p5056
(lp5057
I5223
asS'GGGTTC'
p5058
(lp5059
I1755
aI2178
aI2358
aI4036
aI6400
aI9798
asS'TTTGAT'
p5060
(lp5061
I1252
asS'ACTTAT'
p5062
(lp5063
I3552
aI3891
aI4539
asS'AACGGT'
p5064
(lp5065
I836
aI1659
aI8869
asS'TGCGAA'
p5066
(lp5067
I426
aI6448
aI7053
aI8277
aI8447
asS'TGCGAC'
p5068
(lp5069
I652
aI5672
asS'TGCGAG'
p5070
(lp5071
I2703
aI5174
aI7403
asS'ATTGCC'
p5072
(lp5073
I440
aI678
aI785
aI8394
asS'TTTGAG'
p5074
(lp5075
I2343
asS'ATTGCA'
p5076
(lp5077
I1986
aI2722
aI4112
aI6621
aI8333
asS'GACTAG'
p5078
(lp5079
I3311
aI4977
asS'AACGGG'
p5080
(lp5081
I672
aI5517
aI8266
aI9792
asS'TTTGAC'
p5082
(lp5083
I5655
aI7513
asS'CGGGCT'
p5084
(lp5085
I2048
aI2851
aI7180
aI9328
asS'CTCGTA'
p5086
(lp5087
I3420
aI6175
asS'CTCGTC'
p5088
(lp5089
I771
aI2238
aI3220
aI5149
aI5949
aI7153
aI7620
aI8581
asS'CCCTGG'
p5090
(lp5091
I1484
aI3180
aI6858
aI9872
asS'CCCTGA'
p5092
(lp5093
I1648
aI2684
aI4561
asS'AAGCTT'
p5094
(lp5095
I491
aI1867
aI5313
aI6631
aI7192
asS'GATATT'
p5096
(lp5097
I9741
asS'GATATC'
p5098
(lp5099
I1669
aI2539
aI9695
asS'AAGCTC'
p5100
(lp5101
I6017
aI6531
aI8281
asS'GATATA'
p5102
(lp5103
I417
aI1569
aI2142
aI2943
aI4311
aI6561
aI6989
asS'AAGCTA'
p5104
(lp5105
I5400
aI5958
asS'GATATG'
p5106
(lp5107
I2688
asS'CTCGTT'
p5108
(lp5109
I1840
aI2501
aI3885
asS'TGACGC'
p5110
(lp5111
I3161
aI4959
aI6576
aI7568
aI8753
asS'CTCGGA'
p5112
(lp5113
I9044
asS'TACTCT'
p5114
(lp5115
I6171
aI9302
asS'CATCGT'
p5116
(lp5117
I260
aI1032
aI8524
asS'GTAGTC'
p5118
(lp5119
I1226
aI3003
aI3040
aI4084
aI4372
aI4831
aI5638
aI6762
aI7858
aI7997
aI8325
asS'CAGGGT'
p5120
(lp5121
I1418
aI1753
aI3282
aI8247
asS'CCAGTC'
p5122
(lp5123
I2662
asS'CCAGTG'
p5124
(lp5125
I6033
aI8743
asS'CATCGA'
p5126
(lp5127
I1291
asS'CATCGC'
p5128
(lp5129
I1889
aI5863
asS'TACTCA'
p5130
(lp5131
I9320
asS'CATCGG'
p5132
(lp5133
I5189
aI5803
aI6141
aI6588
aI7253
aI7361
aI8956
aI9907
asS'CAGGGG'
p5134
(lp5135
I1441
aI4078
aI9622
aI9973
asS'CCAGTT'
p5136
(lp5137
I355
aI2453
aI4246
aI5622
asS'CAGGGC'
p5138
(lp5139
I6026
asS'AATCTG'
p5140
(lp5141
I8948
aI9730
asS'TACAAT'
p5142
(lp5143
I5418
asS'GCCATT'
p5144
(lp5145
I318
aI5679
aI6864
asS'AATCTA'
p5146
(lp5147
I3077
aI7829
asS'TGAACG'
p5148
(lp5149
I826
aI3113
asS'TCACAC'
p5150
(lp5151
I3708
aI4926
asS'TCACAA'
p5152
(lp5153
I3759
aI4236
aI4485
aI6517
asS'TAAATT'
p5154
(lp5155
I6607
asS'GAGGAG'
p5156
(lp5157
I5795
asS'GCCATA'
p5158
(lp5159
I614
aI2404
aI8241
asS'CGGACG'
p5160
(lp5161
I515
aI3230
asS'TCCACC'
p5162
(lp5163
I526
aI2551
aI9556
asS'CGGACA'
p5164
(lp5165
I1093
aI5916
aI8389
asS'GCGCGA'
p5166
(lp5167
I6828
aI7925
aI9339
asS'CGGACC'
p5168
(lp5169
I887
aI7204
aI9398
asS'GCCATG'
p5170
(lp5171
I2878
aI5749
aI7331
aI7939
asS'TTTTAA'
p5172
(lp5173
I1576
asS'TCACAT'
p5174
(lp5175
I3821
asS'ATTAAC'
p5176
(lp5177
I1825
aI5726
asS'ATTAAA'
p5178
(lp5179
I507
aI3058
aI7803
aI8543
aI8560
asS'ATTAAG'
p5180
(lp5181
I2953
aI5156
aI7237
asS'CTTACA'
p5182
(lp5183
I4953
aI5038
aI6962
asS'TCACTT'
p5184
(lp5185
I3639
asS'ACTCCT'
p5186
(lp5187
I4617
aI8678
asS'TCCACG'
p5188
(lp5189
I2668
aI9017
asS'ATTAAT'
p5190
(lp5191
I6940
asS'ATCATG'
p5192
(lp5193
I2008
aI8037
asS'GAACCA'
p5194
(lp5195
I7065
asS'GGTATG'
p5196
(lp5197
I4746
aI6490
asS'GGTATA'
p5198
(lp5199
I131
aI249
aI6006
asS'GGTATC'
p5200
(lp5201
I4163
aI4568
aI7140
aI9773
aI9780
asS'TACCTA'
p5202
(lp5203
I599
aI2104
asS'CTGAAA'
p5204
(lp5205
I286
aI6218
asS'CTGAAC'
p5206
(lp5207
I1551
aI3112
aI5347
asS'GGAACC'
p5208
(lp5209
I3864
asS'CTGAAG'
p5210
(lp5211
I1140
aI1342
asS'CATTGC'
p5212
(lp5213
I439
aI784
aI1985
aI6620
aI8393
asS'TATGAG'
p5214
(lp5215
I3444
aI4748
aI5270
asS'CATTGA'
p5216
(lp5217
I1358
aI2083
aI6896
asS'CATTGG'
p5218
(lp5219
I116
aI6336
aI6866
asS'TCAACT'
p5220
(lp5221
I4452
asS'ATGTTA'
p5222
(lp5223
I3773
aI4913
aI5306
aI6154
aI6626
asS'ACACCG'
p5224
(lp5225
I745
aI897
aI2487
aI2738
aI9982
asS'CTGCCA'
p5226
(lp5227
I2402
asS'CTGCCC'
p5228
(lp5229
I4180
aI5070
aI6280
asS'ACACCA'
p5230
(lp5231
I4401
aI8453
asS'CTAGTG'
p5232
(lp5233
I609
aI5411
asS'TCAACC'
p5234
(lp5235
I7448
asS'ACCATA'
p5236
(lp5237
I3833
aI4789
asS'CTAGTC'
p5238
(lp5239
I6687
asS'TCAACG'
p5240
(lp5241
I8530
aI8905
asS'CTAGTA'
p5242
(lp5243
I5993
asS'CATTGT'
p5244
(lp5245
I871
aI5681
asS'GTAATG'
p5246
(lp5247
I4065
aI4462
asS'ACACCT'
p5248
(lp5249
I3243
aI4724
aI9209
asS'CTGCCT'
p5250
(lp5251
I6419
asS'CCTCGT'
p5252
(lp5253
I770
aI1839
aI2500
asS'AGACTG'
p5254
(lp5255
I391
aI7429
asS'CGAGGT'
p5256
(lp5257
I128
aI923
aI3375
aI8097
asS'AGACTA'
p5258
(lp5259
I173
aI1001
aI2707
aI5405
asS'CCTCGC'
p5260
(lp5261
I3868
aI4620
aI9469
asS'CCCGAC'
p5262
(lp5263
I2800
asS'CCTCGA'
p5264
(lp5265
I702
aI808
aI1131
aI8075
asS'CGAGGA'
p5266
(lp5267
I40
aI5794
asS'CGAGGC'
p5268
(lp5269
I633
aI6066
aI7405
asS'CGAGGG'
p5270
(lp5271
I557
aI5855
aI8078
aI9587
asS'ACTTTC'
p5272
(lp5273
I1326
aI9665
asS'ACTTTA'
p5274
(lp5275
I482
aI8859
asS'GTGGCC'
p5276
(lp5277
I4209
asS'GACCTG'
p5278
(lp5279
I726
aI2654
aI7524
asS'GACCTA'
p5280
(lp5281
I2321
aI9413
asS'GACCTC'
p5282
(lp5283
I806
aI3465
asS'CACCGG'
p5284
(lp5285
I776
aI2739
aI6817
asS'CTATTG'
p5286
(lp5287
I371
asS'CACCGA'
p5288
(lp5289
I528
aI2488
asS'ACTTTT'
p5290
(lp5291
I1574
aI1903
asS'GGACGA'
p5292
(lp5293
I1085
aI2903
aI5248
aI8378
asS'GGACGC'
p5294
(lp5295
I292
aI3231
asS'GGACGG'
p5296
(lp5297
I516
aI843
aI1642
aI3022
asS'ACGCTA'
p5298
(lp5299
I2409
aI5505
aI6921
asS'CACAGC'
p5300
(lp5301
I1110
aI8465
asS'CTTATC'
p5302
(lp5303
I3616
aI4540
aI8672
aI8875
asS'CACAGA'
p5304
(lp5305
I4307
asS'CTTATA'
p5306
(lp5307
I1496
aI1563
aI5631
asS'CACAGG'
p5308
(lp5309
I4097
aI8772
asS'CTTATG'
p5310
(lp5311
I1557
aI5562
aI5895
aI8062
asS'ACTCAT'
p5312
(lp5313
I2813
asS'CGTATA'
p5314
(lp5315
I1047
aI2229
aI5383
aI9168
asS'CTTGAC'
p5316
(lp5317
I6163
asS'GACGTC'
p5318
(lp5319
I569
aI8026
aI8107
asS'GAGGAC'
p5320
(lp5321
I1353
aI3020
asS'GAGGAA'
p5322
(lp5323
I41
aI3630
aI5234
aI5273
asS'AGCGAT'
p5324
(lp5325
I3752
aI8803
aI9012
asS'TTAACA'
p5326
(lp5327
I1826
aI3251
asS'ACTCAC'
p5328
(lp5329
I2510
aI6814
aI9321
asS'TTAACC'
p5330
(lp5331
I278
aI1871
aI5572
aI8784
asS'TATGAT'
p5332
(lp5333
I6878
asS'ACTCAG'
p5334
(lp5335
I9027
asS'CTTATT'
p5336
(lp5337
I3553
aI3892
aI5577
asS'CACAGT'
p5338
(lp5339
I7508
asS'AGCGAC'
p5340
(lp5341
I3906
aI6647
asS'TAAACA'
p5342
(lp5343
I2733
aI5762
aI7297
aI7915
asS'AGCGAA'
p5344
(lp5345
I6089
aI9854
asS'TAAACC'
p5346
(lp5347
I1169
aI8562
asS'GACGTT'
p5348
(lp5349
I2639
asS'CCACCG'
p5350
(lp5351
I527
asS'TAAACG'
p5352
(lp5353
I1389
aI6505
asS'AGTTCC'
p5354
(lp5355
I7646
asS'GTATGT'
p5356
(lp5357
I9108
asS'AGTTCA'
p5358
(lp5359
I5922
asS'CTGTGC'
p5360
(lp5361
I459
aI4735
aI6975
aI9213
asS'CTGTGA'
p5362
(lp5363
I1102
aI1780
aI2780
aI3997
aI4218
aI7040
asS'CGGGGT'
p5364
(lp5365
I9504
asS'TCGATA'
p5366
(lp5367
I1133
aI5968
aI7144
aI8114
asS'GCAAAG'
p5368
(lp5369
I4274
aI6948
aI7909
aI8405
aI9135
asS'TAGGAA'
p5370
(lp5371
I1686
aI4774
aI4989
aI9497
aI9726
asS'GCAAAA'
p5372
(lp5373
I1989
aI8635
asS'TAGGAG'
p5374
(lp5375
I2887
aI8478
asS'GCAAAC'
p5376
(lp5377
I637
aI6077
asS'CGGGGC'
p5378
(lp5379
I3502
asS'CGGGGA'
p5380
(lp5381
I2900
aI7819
asS'CTGTGT'
p5382
(lp5383
I3431
aI5013
aI8215
aI9186
asS'GCATAG'
p5384
(lp5385
I1154
aI3602
aI5337
aI5553
aI9077
asS'GTATGC'
p5386
(lp5387
I6491
asS'AGTTCT'
p5388
(lp5389
I367
aI2785
aI4768
aI5887
aI7613
asS'GCAAAT'
p5390
(lp5391
I4021
aI6385
asS'TAGGAT'
p5392
(lp5393
I332
aI3807
asS'AAAAAT'
p5394
(lp5395
I1993
aI6842
asS'ACGCTT'
p5396
(lp5397
I3233
asS'TGCTTT'
p5398
(lp5399
I7528
asS'GTCTAT'
p5400
(lp5401
I3223
aI3920
aI4291
aI4365
aI4824
aI6755
aI7851
asS'GTAATT'
p5402
(lp5403
I1147
asS'GTTACC'
p5404
(lp5405
I4054
asS'GTTACA'
p5406
(lp5407
I3138
aI5308
aI7381
aI7629
aI9979
asS'TATCGA'
p5408
(lp5409
I3618
aI7142
aI9782
asS'TATCGC'
p5410
(lp5411
I3509
aI3611
aI4165
aI8057
asS'TATAGT'
p5412
(lp5413
I1586
aI9170
asS'GTCTAA'
p5414
(lp5415
I1166
aI2336
aI2730
aI3006
aI3043
aI5882
aI7214
asS'TGCTTA'
p5416
(lp5417
I1561
aI3248
aI5036
aI5056
aI8670
asS'TTCAAG'
p5418
(lp5419
I387
asS'TGCTTC'
p5420
(lp5421
I9837
asS'TTCAAA'
p5422
(lp5423
I1758
aI3356
aI5832
aI7282
aI7723
aI8985
aI9936
asS'GGCGTT'
p5424
(lp5425
I4051
asS'TGCTTG'
p5426
(lp5427
I1664
aI3341
aI5082
aI6494
aI8622
asS'TATAGC'
p5428
(lp5429
I1818
asS'TATCGT'
p5430
(lp5431
I4368
aI4827
aI5777
aI6427
aI6758
aI7854
aI8302
asS'TATAGA'
p5432
(lp5433
I1565
aI6563
asS'AGTGGG'
p5434
(lp5435
I3091
aI3145
asS'TATAGG'
p5436
(lp5437
I251
aI2885
aI4313
aI4668
aI8476
asS'GTTACT'
p5438
(lp5439
I543
aI2431
aI3888
aI6156
aI8204
asS'GCTCTC'
p5440
(lp5441
I947
aI3872
aI4857
aI5203
asS'AACCTT'
p5442
(lp5443
I1554
aI3267
aI3741
aI5574
aI8503
asS'GGGCTA'
p5444
(lp5445
I2055
aI2223
aI4192
asS'GCTCTG'
p5446
(lp5447
I2399
aI7761
aI8017
asS'GGAGAG'
p5448
(lp5449
I120
aI3577
aI4101
aI6795
asS'GGAAAG'
p5450
(lp5451
I43
aI7492
aI7779
asS'CAGGAG'
p5452
(lp5453
I2063
aI4099
aI5231
asS'GAATGG'
p5454
(lp5455
I1265
aI2907
aI4945
asS'GGCTTT'
p5456
(lp5457
I2208
aI6592
asS'ACTACT'
p5458
(lp5459
I501
aI2822
aI5407
aI6159
asS'GAATGC'
p5460
(lp5461
I54
aI2392
aI3537
aI7975
aI8619
asS'CCACGA'
p5462
(lp5463
I802
aI2121
aI9018
asS'CAATAC'
p5464
(lp5465
I2116
aI2171
aI3571
aI6168
aI8194
asS'CCACGC'
p5466
(lp5467
I2874
asS'GGCGTA'
p5468
(lp5469
I2755
aI3201
aI7441
asS'GGAAAT'
p5470
(lp5471
I820
aI6300
aI9092
asS'CCACGG'
p5472
(lp5473
I2669
aI4404
asS'AACCTA'
p5474
(lp5475
I73
aI4582
asS'GAATGT'
p5476
(lp5477
I3207
aI5237
asS'ACTACC'
p5478
(lp5479
I5487
aI7338
asS'GGCTTC'
p5480
(lp5481
I663
asS'ACTACA'
p5482
(lp5483
I1310
asS'ACTACG'
p5484
(lp5485
I3456
asS'GGCTTG'
p5486
(lp5487
I1528
aI2439
aI3955
aI5440
aI7310
aI9103
asS'CGTTGA'
p5488
(lp5489
I1505
asS'AAAAAA'
p5490
(lp5491
I1991
aI1992
aI4008
aI4009
aI4713
aI4714
aI4715
aI4716
aI4993
aI6221
aI6841
asS'TAACAC'
p5492
(lp5493
I2809
asS'TCCTAC'
p5494
(lp5495
I1812
aI9205
aI9751
asS'AGTCAC'
p5496
(lp5497
I3637
aI3778
asS'CGTTGG'
p5498
(lp5499
I4188
aI6455
aI8414
aI8766
aI9757
asS'TAACAG'
p5500
(lp5501
I1827
aI3252
aI4026
aI6390
aI9951
asS'TCATCG'
p5502
(lp5503
I1031
asS'AAGCGT'
p5504
(lp5505
I8639
asS'TCATCC'
p5506
(lp5507
I4530
asS'AAAAAC'
p5508
(lp5509
I4010
aI4717
aI4994
aI5064
aI6222
asS'CTTTCT'
p5510
(lp5511
I212
aI1327
aI3065
aI4871
aI9530
asS'AGTCAT'
p5512
(lp5513
I8327
asS'ACAGGT'
p5514
(lp5515
I3479
asS'CGTTGT'
p5516
(lp5517
I1183
aI3496
asS'TAAATA'
p5518
(lp5519
I7092
asS'GAGCGA'
p5520
(lp5521
I8233
aI9011
asS'TCCCTT'
p5522
(lp5523
I8924
asS'TCATCT'
p5524
(lp5525
I1951
aI9146
aI9476
asS'CTTTCG'
p5526
(lp5527
I3517
asS'AGCCGT'
p5528
(lp5529
I2459
aI3493
aI8145
asS'AAAAAG'
p5530
(lp5531
I3290
aI8383
asS'GTTGAT'
p5532
(lp5533
I6479
asS'CGACCC'
p5534
(lp5535
I3913
asS'CGACCG'
p5536
(lp5537
I2157
aI5674
asS'CCTTAT'
p5538
(lp5539
I1556
aI5561
aI5576
aI5894
asS'GTTGAC'
p5540
(lp5541
I3319
aI7566
asS'GTTGAA'
p5542
(lp5543
I1506
aI7798
aI8710
asS'ACTGGG'
p5544
(lp5545
I1317
aI2175
aI2244
aI9549
aI9768
asS'GTTGAG'
p5546
(lp5547
I9616
asS'CCTTAC'
p5548
(lp5549
I1
aI2895
aI5718
asS'CCTTAA'
p5550
(lp5551
I5937
aI8140
aI9610
asS'CCTTAG'
p5552
(lp5553
I5491
aI9862
asS'CGACCT'
p5554
(lp5555
I805
aI8834
asS'CAACTC'
p5556
(lp5557
I4471
asS'AATAGC'
p5558
(lp5559
I644
aI6374
aI9131
asS'CAACTG'
p5560
(lp5561
I4453
aI6215
aI6984
aI9898
asS'TGTGGT'
p5562
(lp5563
I7164
aI8841
asS'AATATC'
p5564
(lp5565
I3609
asS'GATGGT'
p5566
(lp5567
I1373
aI4389
aI4848
aI6602
aI6779
aI7875
asS'GGGGTT'
p5568
(lp5569
I9797
aI9976
asS'GGATGT'
p5570
(lp5571
I6152
aI7736
aI8706
asS'AATAGT'
p5572
(lp5573
I4259
aI7094
aI7643
asS'GGGCTT'
p5574
(lp5575
I2207
aI7309
aI9329
aI9879
asS'CAACTT'
p5576
(lp5577
I8857
asS'TGCCGG'
p5578
(lp5579
I8259
asS'GGGGTG'
p5580
(lp5581
I2247
aI6525
aI8736
aI9505
asS'GGGGTC'
p5582
(lp5583
I1443
aI1744
aI6700
aI9624
asS'GGGGTA'
p5584
(lp5585
I180
aI4081
aI9771
asS'TCTCCG'
p5586
(lp5587
I236
aI1364
aI4060
aI9113
asS'GAGTCC'
p5588
(lp5589
I1631
asS'AAACTG'
p5590
(lp5591
I1025
aI4121
aI4421
aI8573
asS'TCTCCC'
p5592
(lp5593
I756
aI2788
aI5904
aI6043
asS'AAACTA'
p5594
(lp5595
I639
aI2820
aI6568
asS'TCTCCA'
p5596
(lp5597
I215
aI2666
asS'AAACTC'
p5598
(lp5599
I3882
asS'ACGCGA'
p5600
(lp5601
I1305
aI2528
aI3910
aI5791
aI7658
aI8494
aI9671
asS'AGTACG'
p5602
(lp5603
I5495
aI8089
asS'CTATGC'
p5604
(lp5605
I3922
aI5171
aI7814
asS'AGTACC'
p5606
(lp5607
I1882
aI2937
aI4134
aI4323
asS'CTATGG'
p5608
(lp5609
I176
aI9352
aI9441
asS'AGTACA'
p5610
(lp5611
I4262
aI5299
aI5799
aI9154
asS'AAACTT'
p5612
(lp5613
I2419
aI2920
aI3965
aI5092
aI5941
aI6959
aI7320
aI7473
asS'CCCTTC'
p5614
(lp5615
I3052
aI8566
asS'TCTCCT'
p5616
(lp5617
I863
aI2862
asS'CCCTTG'
p5618
(lp5619
I1080
aI3797
aI4138
aI8433
asS'AGTACT'
p5620
(lp5621
I498
aI4378
aI4837
aI6768
aI7864
asS'ACGCGT'
p5622
(lp5623
I1502
aI5498
asS'GCCGAA'
p5624
(lp5625
I362
aI6107
aI8616
aI9054
asS'GTGGAG'
p5626
(lp5627
I7073
asS'GCCGAG'
p5628
(lp5629
I2960
aI3373
aI4212
asS'GTGGAA'
p5630
(lp5631
I2068
aI3286
aI4709
aI6664
aI7957
asS'GTGGAT'
p5632
(lp5633
I915
aI5004
aI6038
asS'GCCATC'
p5634
(lp5635
I7359
asS'GCCGAT'
p5636
(lp5637
I2139
aI3662
asS'CCTATT'
p5638
(lp5639
I2106
aI6422
asS'ACCGAG'
p5640
(lp5641
I555
aI2489
aI2697
aI3071
aI8370
asS'GTAGTA'
p5642
(lp5643
I684
aI5773
asS'ACCGAC'
p5644
(lp5645
I529
asS'AAATCC'
p5646
(lp5647
I1761
aI5111
aI9094
asS'ACCGAA'
p5648
(lp5649
I69
aI890
aI7079
asS'AAATCA'
p5650
(lp5651
I537
aI6844
aI6927
aI8035
asS'AGATAC'
p5652
(lp5653
I4556
aI5817
aI7267
aI8970
aI9921
asS'CACGCT'
p5654
(lp5655
I5504
asS'AAATCT'
p5656
(lp5657
I3061
aI6302
aI7149
asS'ACCGAT'
p5658
(lp5659
I2159
aI2940
aI3651
aI5722
asS'GTAGTT'
p5660
(lp5661
I470
aI4766
asS'ACCAGT'
p5662
(lp5663
I3036
asS'GATGAT'
p5664
(lp5665
I17
asS'GGAGCA'
p5666
(lp5667
I2605
asS'GGAGCC'
p5668
(lp5669
I1402
asS'AAAGTG'
p5670
(lp5671
I3143
aI3292
aI7070
asS'CCAAAT'
p5672
(lp5673
I2830
aI3334
aI6500
asS'AAAACT'
p5674
(lp5675
I1024
aI2819
aI3964
aI4420
aI5091
aI6958
aI7319
aI7472
asS'GATGAC'
p5676
(lp5677
I2301
aI4974
aI6729
asS'GATGAA'
p5678
(lp5679
I3172
aI3488
aI8498
asS'ATGAAA'
p5680
(lp5681
I5108
aI6838
aI8499
asS'AAGGGG'
p5682
(lp5683
I6522
asS'CCAAAA'
p5684
(lp5685
I4006
aI6082
asS'AAAACA'
p5686
(lp5687
I1209
aI1219
aI6084
aI6211
aI6223
aI7726
asS'AAAACG'
p5688
(lp5689
I4011
aI4718
aI4995
aI9164
aI9790
asS'GGAGCT'
p5690
(lp5691
I8480
asS'CCAAAG'
p5692
(lp5693
I1071
aI4904
aI4940
aI7068
asS'TCGCGG'
p5694
(lp5695
I3527
aI6002
aI6691
aI8698
asS'CTAGAG'
p5696
(lp5697
I9689
asS'TCGCGC'
p5698
(lp5699
I25
aI7174
asS'TCGCGA'
p5700
(lp5701
I573
aI920
aI1616
aI9515
asS'TACCCT'
p5702
(lp5703
I767
aI3943
aI4136
aI4559
aI5265
asS'GCCACC'
p5704
(lp5705
I1479
asS'AGAAAT'
p5706
(lp5707
I1600
aI6238
asS'AACGTG'
p5708
(lp5709
I6507
asS'GCGCTT'
p5710
(lp5711
I3129
asS'TGCCTA'
p5712
(lp5713
I6420
aI8396
asS'ATGTCA'
p5714
(lp5715
I4478
aI9066
asS'TCGCGT'
p5716
(lp5717
I9471
aI9841
asS'ACCCGT'
p5718
(lp5719
I2379
asS'AGAAAG'
p5720
(lp5721
I2387
aI7652
aI8085
aI9060
asS'CTAGAC'
p5722
(lp5723
I4979
aI5403
asS'AGAAAC'
p5724
(lp5725
I551
aI3671
aI6566
aI7110
aI8119
aI9225
asS'ATGTCC'
p5726
(lp5727
I2126
aI7738
asS'GTGCAG'
p5728
(lp5729
I2649
aI5143
asS'ATGTAC'
p5730
(lp5731
I5239
aI7116
aI8807
asS'ACTTCG'
p5732
(lp5733
I9087
asS'ATGTAA'
p5734
(lp5735
I1386
asS'ATGTAG'
p5736
(lp5737
I4465
asS'CGAAGT'
p5738
(lp5739
I364
aI428
aI1194
aI2332
aI6193
asS'GTTCCG'
p5740
(lp5741
I3483
aI7226
aI7393
asS'CCCAAG'
p5742
(lp5743
I2792
aI5733
asS'CCTATC'
p5744
(lp5745
I3507
aI8593
aI9142
asS'CTATGA'
p5746
(lp5747
I3307
aI3443
aI5269
asS'ATGTAT'
p5748
(lp5749
I3981
asS'ATTAGA'
p5750
(lp5751
I1997
aI4551
asS'CACTGA'
p5752
(lp5753
I3562
aI4628
aI9737
asS'GTTCCA'
p5754
(lp5755
I3297
aI6312
aI7647
asS'GTTCCC'
p5756
(lp5757
I2180
asS'AGCACT'
p5758
(lp5759
I220
aI4536
aI7542
asS'TTAGAA'
p5760
(lp5761
I1998
asS'CGGCTG'
p5762
(lp5763
I456
aI1339
aI2572
aI5344
aI7101
aI7992
asS'TTAGAC'
p5764
(lp5765
I3462
aI4397
aI9883
asS'CGGCTC'
p5766
(lp5767
I1429
aI2029
aI2291
aI2397
aI5909
asS'TTAGAG'
p5768
(lp5769
I4552
asS'CGGCTA'
p5770
(lp5771
I447
aI6999
asS'AGCACC'
p5772
(lp5773
I1242
aI1785
aI9368
asS'AGCACA'
p5774
(lp5775
I348
aI4908
aI9253
asS'AGCACG'
p5776
(lp5777
I4354
aI4813
aI6744
aI7840
asS'CGGCTT'
p5778
(lp5779
I5439
aI6591
aI9102
aI9564
asS'TTAGAT'
p5780
(lp5781
I3769
asS'CCAGCA'
p5782
(lp5783
I218
aI1458
aI4534
aI6547
asS'CGAAGC'
p5784
(lp5785
I5956
aI6015
aI7661
aI8279
asS'AAAGAA'
p5786
(lp5787
I45
aI2389
aI4197
aI4942
aI9058
asS'AAAGAG'
p5788
(lp5789
I1238
aI9418
aI9682
asS'CCAGCG'
p5790
(lp5791
I5660
aI5978
aI8801
aI9372
asS'CGACGT'
p5792
(lp5793
I568
asS'TTATTT'
p5794
(lp5795
I984
aI2310
aI5578
asS'TGTGAG'
p5796
(lp5797
I1781
aI2781
aI6785
asS'TGTGAA'
p5798
(lp5799
I5707
asS'ACGTCT'
p5800
(lp5801
I2728
aI4918
aI8108
asS'TGTGAC'
p5802
(lp5803
I852
aI1103
aI3998
aI9631
asS'ATATCT'
p5804
(lp5805
I2540
aI2946
aI4597
aI4792
aI9696
asS'CCAGCT'
p5806
(lp5807
I2280
aI3849
aI7006
aI8654
asS'AAAGAT'
p5808
(lp5809
I7087
aI8407
aI9062
asS'TGTGAT'
p5810
(lp5811
I2424
aI4219
aI7041
asS'TTATTG'
p5812
(lp5813
I3701
aI3893
asS'GAAAGC'
p5814
(lp5815
I7056
asS'TTATTC'
p5816
(lp5817
I2846
aI3554
asS'AGACGG'
p5818
(lp5819
I4981
aI5255
aI9031
asS'GCGAAC'
p5820
(lp5821
I4579
aI9517
asS'CTTACT'
p5822
(lp5823
I4146
aI5352
aI9318
asS'TCCACT'
p5824
(lp5825
I1490
aI4965
aI8297
asS'TACAAA'
p5826
(lp5827
I1021
aI3140
aI4336
aI5040
aI8659
asS'AGACGA'
p5828
(lp5829
I8884
asS'TACAAC'
p5830
(lp5831
I4264
asS'CCTCTG'
p5832
(lp5833
I186
aI589
aI789
aI7209
asS'AGGTGG'
p5834
(lp5835
I3721
asS'CCTCTC'
p5836
(lp5837
I4058
aI4089
aI4526
aI5741
asS'AGGTGC'
p5838
(lp5839
I882
aI7355
asS'CCTCTA'
p5840
(lp5841
I2714
asS'AGGTGA'
p5842
(lp5843
I94
aI733
aI1846
asS'CTTACG'
p5844
(lp5845
I696
aI2896
aI5058
asS'TCCACA'
p5846
(lp5847
I2996
aI3558
asS'TTTTAG'
p5848
(lp5849
I2469
aI7553
aI8928
asS'CGTCGA'
p5850
(lp5851
I268
asS'CTTACC'
p5852
(lp5853
I2
aI5719
aI8208
asS'CCAAAC'
p5854
(lp5855
I2483
aI2918
aI8571
asS'TTTTAC'
p5856
(lp5857
I2313
aI4333
asS'ACATCC'
p5858
(lp5859
I351
aI1212
aI6539
aI9258
asS'AGGTGT'
p5860
(lp5861
I7683
aI7794
aI8099
asS'CCTCTT'
p5862
(lp5863
I3467
asS'GCGTGA'
p5864
(lp5865
I1233
aI4879
aI8229
asS'CCCGGC'
p5866
(lp5867
I1427
aI1519
aI5907
aI7887
asS'CCCGGA'
p5868
(lp5869
I5914
aI6297
aI7776
asS'TATGAC'
p5870
(lp5871
I2506
aI3308
aI8934
aI9083
asS'TTGTGT'
p5872
(lp5873
I9814
asS'AATTAA'
p5874
(lp5875
I5155
aI7802
aI8559
asS'TTGTGC'
p5876
(lp5877
I4853
aI5443
aI5683
aI8599
asS'TTGTGA'
p5878
(lp5879
I851
aI2423
aI5706
aI6784
aI9630
asS'TTGTGG'
p5880
(lp5881
I1740
aI8683
aI8840
asS'CCCGGT'
p5882
(lp5883
I1379
asS'GGCGTG'
p5884
(lp5885
I8228
asS'TGGAAG'
p5886
(lp5887
I3123
aI6674
asS'TGGAAC'
p5888
(lp5889
I2069
aI2592
aI5483
aI6665
aI7958
aI8866
asS'TGGAAA'
p5890
(lp5891
I1965
aI3287
aI4118
aI4710
asS'TGAGGA'
p5892
(lp5893
I1352
aI5272
asS'AAGAGG'
p5894
(lp5895
I2633
aI3628
aI5159
asS'TGAGGC'
p5896
(lp5897
I1532
aI2436
aI2495
aI7905
aI9292
asS'AAGAGA'
p5898
(lp5899
I61
aI689
aI1345
aI2019
aI4698
aI8178
aI9570
asS'AAGAGC'
p5900
(lp5901
I1239
aI2956
aI3302
asS'TGAGGG'
p5902
(lp5903
I4564
aI7411
asS'GCTTAG'
p5904
(lp5905
I9331
aI9881
asS'GCTTAC'
p5906
(lp5907
I5037
aI5057
asS'GCTTAA'
p5908
(lp5909
I1869
aI3249
aI9286
aI9566
asS'TGATTC'
p5910
(lp5911
I375
aI8726
asS'AAGCGC'
p5912
(lp5913
I206
aI314
aI4348
aI4807
aI5594
aI5692
aI6738
aI7834
aI9464
asS'AAGAGT'
p5914
(lp5915
I151
aI2165
aI5139
aI5296
aI9419
aI9683
asS'AAGCGA'
p5916
(lp5917
I3751
aI9853
asS'AAGCGG'
p5918
(lp5919
I3350
aI4742
aI7058
aI8386
asS'CATGAG'
p5920
(lp5921
I6203
aI7941
aI9536
asS'GCTTAT'
p5922
(lp5923
I1562
aI3615
aI8061
aI8671
asS'CTGCTC'
p5924
(lp5925
I1177
aI4922
aI6129
aI7617
aI7771
asS'ACTTCT'
p5926
(lp5927
I2922
aI4381
aI4840
aI6771
aI7867
aI7962
asS'GACCGT'
p5928
(lp5929
I9400
asS'CTGCTG'
p5930
(lp5931
I2588
aI6413
aI6416
aI7432
asS'CGGTCA'
p5932
(lp5933
I198
aI519
aI1381
aI4440
asS'CGGTCC'
p5934
(lp5935
I4407
aI8294
asS'CTAGAA'
p5936
(lp5937
I1598
aI3313
aI4796
aI9432
asS'CGGTCG'
p5938
(lp5939
I2623
aI6181
aI7230
asS'GACCGA'
p5940
(lp5941
I889
aI2158
aI3650
aI7078
asS'GACCGC'
p5942
(lp5943
I4001
aI4883
aI5675
aI6232
asS'ACTTCC'
p5944
(lp5945
I3685
asS'CTGCTT'
p5946
(lp5947
I3247
aI5035
aI5055
aI5081
aI7527
asS'GACCGG'
p5948
(lp5949
I855
aI1726
aI8791
asS'CTAGAT'
p5950
(lp5951
I6715
asS'GGTCGG'
p5952
(lp5953
I2092
aI7950
asS'CGGTCT'
p5954
(lp5955
I846
aI1769
aI3530
aI4984
aI6820
aI8871
asS'GGTCGC'
p5956
(lp5957
I2624
aI3378
aI3844
aI4317
aI5163
aI7172
aI7231
aI7460
asS'GGTCGA'
p5958
(lp5959
I926
aI6182
asS'CGTCGC'
p5960
(lp5961
I571
aI8317
asS'GCGTGG'
p5962
(lp5963
I463
aI913
aI5002
asS'CGTCGG'
p5964
(lp5965
I1336
aI9392
asS'GCGTGC'
p5966
(lp5967
I9834
aI9843
asS'TGCTCA'
p5968
(lp5969
I1414
aI4923
aI8747
asS'TTCATC'
p5970
(lp5971
I1950
aI5869
asS'TGCTCC'
p5972
(lp5973
I1178
aI1798
aI3412
aI6130
aI7772
asS'TTCATG'
p5974
(lp5975
I5029
aI5105
asS'TGCTCG'
p5976
(lp5977
I564
aI7618
asS'GTACAA'
p5978
(lp5979
I1020
aI4263
aI8643
aI9155
asS'CAGCAG'
p5980
(lp5981
I6548
asS'TACACT'
p5982
(lp5983
I1053
aI2759
asS'GGCTTA'
p5984
(lp5985
I9330
aI9565
aI9880
asS'GCTTTG'
p5986
(lp5987
I6593
asS'CAGCAC'
p5988
(lp5989
I219
aI4353
aI4535
aI4812
aI6743
aI7839
asS'CAGCAA'
p5990
(lp5991
I1459
aI9450
asS'GGGAGT'
p5992
(lp5993
I1718
aI9703
asS'GTACAC'
p5994
(lp5995
I2758
aI7505
aI8130
aI9387
asS'TGATTT'
p5996
(lp5997
I2545
aI5523
aI6481
asS'TTCATT'
p5998
(lp5999
I3055
aI3271
aI6618
asS'GTAGCC'
p6000
(lp6001
I2193
asS'TGGCCG'
p6002
(lp6003
I2576
aI4210
aI9355
asS'GCTGCA'
p6004
(lp6005
I296
aI2974
aI6890
aI7669
aI9193
asS'AACTCT'
p6006
(lp6007
I4892
asS'GCTGCG'
p6008
(lp6009
I8125
asS'GTAGCA'
p6010
(lp6011
I3599
aI4467
aI8219
aI9251
asS'TGCTCT'
p6012
(lp6013
I4856
aI7760
asS'AGCAAA'
p6014
(lp6015
I6076
aI9134
asS'AACTCC'
p6016
(lp6017
I4472
aI4616
aI5729
asS'GCTGCT'
p6018
(lp6019
I5034
aI5080
aI6415
aI7770
asS'AACTCG'
p6020
(lp6021
I3218
aI3883
asS'CTACAA'
p6022
(lp6023
I8658
asS'GGATCC'
p6024
(lp6025
I5467
aI9553
asS'AATATT'
p6026
(lp6027
I1603
aI2719
aI2990
asS'GCTGCC'
p6028
(lp6029
I6418
asS'GGCACA'
p6030
(lp6031
I3240
aI8770
asS'GACAAT'
p6032
(lp6033
I6166
aI7398
aI9128
asS'TCGCAA'
p6034
(lp6035
I8319
aI8821
asS'GTACAT'
p6036
(lp6037
I1804
aI5300
aI5800
aI7250
aI8521
aI8953
aI9904
asS'AATATG'
p6038
(lp6039
I3337
aI6876
asS'CAACCC'
p6040
(lp6041
I2074
aI3792
aI7449
asS'AGCAAG'
p6042
(lp6043
I2607
aI7664
aI7970
asS'CAACCA'
p6044
(lp6045
I2871
aI3831
asS'GACAAA'
p6046
(lp6047
I3961
aI5088
aI7316
aI7469
asS'GACAAC'
p6048
(lp6049
I2041
aI8937
asS'ACGACA'
p6050
(lp6051
I4721
asS'GACAAG'
p6052
(lp6053
I2218
aI4428
aI5918
aI6732
aI7106
asS'GCAATC'
p6054
(lp6055
I398
asS'GCAATA'
p6056
(lp6057
I2115
aI3607
aI4592
aI6372
aI8193
asS'GCAATG'
p6058
(lp6059
I1461
aI2353
aI3119
aI5648
aI9452
asS'CAAGTG'
p6060
(lp6061
I8646
asS'CGATGG'
p6062
(lp6063
I3951
aI9485
asS'GACACT'
p6064
(lp6065
I6095
aI9662
asS'TCCCAT'
p6066
(lp6067
I758
aI4691
aI7602
asS'CGATGC'
p6068
(lp6069
I932
aI5220
asS'CAGCAT'
p6070
(lp6071
I5766
asS'CGATGA'
p6072
(lp6073
I16
aI2300
aI3171
aI3487
aI8497
asS'GAATTA'
p6074
(lp6075
I2843
aI4446
aI7801
aI8355
asS'GAATTC'
p6076
(lp6077
I628
aI3097
aI9579
aI9857
asS'GAATTG'
p6078
(lp6079
I303
aI6790
asS'GTAAAC'
p6080
(lp6081
I1388
aI7914
asS'CGATGT'
p6082
(lp6083
I2124
aI7161
aI8805
asS'TCCCAC'
p6084
(lp6085
I4729
asS'GTAAAG'
p6086
(lp6087
I978
aI1036
aI1705
aI3347
asS'TCCCAG'
p6088
(lp6089
I5462
asS'GGATTT'
p6090
(lp6091
I6870
aI9489
asS'AGCGGA'
p6092
(lp6093
I1113
aI8387
asS'CTCGAT'
p6094
(lp6095
I703
aI1132
asS'GGATTC'
p6096
(lp6097
I384
aI859
aI4687
asS'GGATTA'
p6098
(lp6099
I1321
asS'GGATTG'
p6100
(lp6101
I406
aI676
aI1731
aI5006
aI8363
asS'AGCGGC'
p6102
(lp6103
I2347
aI2752
aI5437
aI6997
asS'ACGCCA'
p6104
(lp6105
I146
aI2876
aI3331
aI6578
aI7937
asS'ATATAG'
p6106
(lp6107
I4312
aI6562
aI8475
asS'TCTGTC'
p6108
(lp6109
I7211
aI9715
aI9732
asS'TCTGTA'
p6110
(lp6111
I8950
asS'GGCGGC'
p6112
(lp6113
I2027
aI2289
aI8225
asS'CTCCTT'
p6114
(lp6115
I1856
aI8679
aI8915
asS'GGCGGA'
p6116
(lp6117
I1202
aI2365
aI9396
asS'AACCGC'
p6118
(lp6119
I1873
aI8588
asS'AACCGA'
p6120
(lp6121
I554
asS'TCTGTT'
p6122
(lp6123
I188
aI2264
asS'AAAGCG'
p6124
(lp6125
I3349
aI4347
aI7057
aI8385
aI8638
asS'CTCCTG'
p6126
(lp6127
I864
aI2863
asS'AACCGT'
p6128
(lp6129
I273
aI7027
asS'CTCCTA'
p6130
(lp6131
I1432
aI5168
aI9204
asS'CTCCTC'
p6132
(lp6133
I4618
asS'GGCGGT'
p6134
(lp6135
I7501
aI8665
asS'AACAAG'
p6136
(lp6137
I1221
aI3748
aI5689
aI6225
aI7917
asS'GACGCC'
p6138
(lp6139
I6577
aI7936
aI9241
asS'AACAAC'
p6140
(lp6141
I2072
aI6213
asS'CCCACC'
p6142
(lp6143
I1515
aI4730
aI9525
asS'TACTTC'
p6144
(lp6145
I4380
aI4839
aI6615
aI6770
aI7866
asS'CCGATT'
p6146
(lp6147
I3592
aI3652
aI3663
aI5723
asS'CCCACT'
p6148
(lp6149
I5073
asS'AACAAT'
p6150
(lp6151
I1922
aI6286
asS'GACGCT'
p6152
(lp6153
I293
aI3232
aI4960
asS'AGCGGT'
p6154
(lp6155
I3351
aI4743
aI7059
asS'CCACGT'
p6156
(lp6157
I9247
asS'CCGATA'
p6158
(lp6159
I415
aI2140
aI2160
aI2537
aI2941
asS'AGCCTA'
p6160
(lp6161
I595
aI2255
aI6377
aI7789
asS'AGCCTC'
p6162
(lp6163
I140
asS'GTACCC'
p6164
(lp6165
I3942
aI4135
aI7882
asS'GAGTTT'
p6166
(lp6167
I153
aI7944
asS'ACGAAT'
p6168
(lp6169
I301
aI2905
asS'CGCCTT'
p6170
(lp6171
I209
aI9640
asS'ACGCCT'
p6172
(lp6173
I699
asS'ACCTCC'
p6174
(lp6175
I4726
aI8913
aI9202
asS'CAGAGT'
p6176
(lp6177
I4280
asS'GCATCT'
p6178
(lp6179
I3513
asS'CTCCCA'
p6180
(lp6181
I757
aI4728
aI5731
asS'ACGAAA'
p6182
(lp6183
I1939
aI5061
aI5250
aI7084
aI8380
aI9020
asS'CGCCTC'
p6184
(lp6185
I700
aI4623
aI8440
aI9467
asS'AGGCAA'
p6186
(lp6187
I635
aI2113
aI7907
aI8633
asS'CGCCTA'
p6188
(lp6189
I162
aI8591
asS'AGGCAG'
p6190
(lp6191
I1271
aI1534
aI1750
aI3546
aI3717
aI6849
aI9294
asS'CGCCTG'
p6192
(lp6193
I952
asS'GTACCT'
p6194
(lp6195
I183
aI4867
aI5241
aI5934
aI7718
asS'CAGAGG'
p6196
(lp6197
I9263
asS'GCATCC'
p6198
(lp6199
I6188
aI7127
aI9541
asS'CTCCCC'
p6200
(lp6201
I2789
aI5367
asS'GCATCG'
p6202
(lp6203
I1888
asS'CAGAGA'
p6204
(lp6205
I1910
aI5926
asS'AATCAT'
p6206
(lp6207
I8036
asS'TAGCTA'
p6208
(lp6209
I1820
aI5990
aI9653
asS'CCTAGA'
p6210
(lp6211
I1597
asS'CCTAGC'
p6212
(lp6213
I1434
asS'TTTGCT'
p6214
(lp6215
I5426
asS'TGCGGT'
p6216
(lp6217
I1767
aI9175
asS'CCTAGG'
p6218
(lp6219
I1524
aI6379
aI7791
asS'CCCATG'
p6220
(lp6221
I3157
aI4692
aI5370
aI5391
aI7980
aI9378
asS'GTCTAG'
p6222
(lp6223
I4986
aI7134
aI9687
asS'TTTGCA'
p6224
(lp6225
I435
aI1906
aI6595
aI7124
asS'TTTGCC'
p6226
(lp6227
I359
asS'TGCGGG'
p6228
(lp6229
I3937
aI7817
aI8045
asS'CCCATA'
p6230
(lp6231
I759
asS'TGAGTT'
p6232
(lp6233
I2783
aI7943
asS'TAGCTG'
p6234
(lp6235
I9988
asS'ATCGCT'
p6236
(lp6237
I3612
aI5864
aI8058
asS'TCTCGT'
p6238
(lp6239
I3419
aI6174
aI7152
asS'ATCGCC'
p6240
(lp6241
I4166
aI7584
asS'CAATTA'
p6242
(lp6243
I4299
aI5154
asS'ATCGCA'
p6244
(lp6245
I1890
aI3510
aI6290
asS'TGAGTA'
p6246
(lp6247
I9828
asS'ATCGCG'
p6248
(lp6249
I919
aI3526
aI6001
aI9514
asS'AAGGTG'
p6250
(lp6251
I7354
asS'AAGGTC'
p6252
(lp6253
I1074
aI4431
asS'CATCAT'
p6254
(lp6255
I2007
aI6903
asS'AAGGTA'
p6256
(lp6257
I4153
aI5931
aI8628
aI9459
aI9649
asS'ACGGCA'
p6258
(lp6259
I3116
aI8853
asS'CATCAC'
p6260
(lp6261
I6515
aI8490
asS'ACGGCC'
p6262
(lp6263
I1644
aI5257
aI8136
aI9033
aI9521
asS'CATCAA'
p6264
(lp6265
I5871
asS'CATCAG'
p6266
(lp6267
I6023
asS'TCACCT'
p6268
(lp6269
I3101
aI9607
asS'CGGAAT'
p6270
(lp6271
I2367
asS'GTGGCT'
p6272
(lp6273
I8685
asS'CTCATG'
p6274
(lp6275
I2032
aI2284
aI8443
aI8484
aI8749
aI9534
asS'TCACCG'
p6276
(lp6277
I775
aI6816
asS'TCACCA'
p6278
(lp6279
I2512
asS'TCACCC'
p6280
(lp6281
I2377
aI5022
aI5533
asS'CGGAAG'
p6282
(lp6283
I3713
aI5192
aI8536
asS'AATATA'
p6284
(lp6285
I3976
aI4594
aI6241
aI8548
asS'AACTGG'
p6286
(lp6287
I9899
asS'AAAATA'
p6288
(lp6289
I8546
asS'CGGAAC'
p6290
(lp6291
I476
aI1115
asS'AGCTCG'
p6292
(lp6293
I4204
aI5147
aI5947
aI6532
aI8695
asS'CGGAAA'
p6294
(lp6295
I819
aI6299
aI7778
aI8262
aI9091
asS'TAGCTT'
p6296
(lp6297
I9865
asS'ATGGCG'
p6298
(lp6299
I908
aI2287
asS'TGTGTA'
p6300
(lp6301
I3434
aI5016
aI8066
aI8216
aI9180
asS'TGTGTG'
p6302
(lp6303
I3432
aI5014
asS'ATGGCA'
p6304
(lp6305
I5550
asS'TTCAGA'
p6306
(lp6307
I2384
aI4226
aI5924
asS'ATGGCT'
p6308
(lp6309
I2691
aI3953
aI4947
aI5565
asS'TGTGTT'
p6310
(lp6311
I9187
aI9815
asS'AGAATT'
p6312
(lp6313
I627
aI4445
aI6789
aI8354
asS'GAAACG'
p6314
(lp6315
I1609
aI4777
aI6451
aI8120
aI8264
aI9226
asS'GAAACA'
p6316
(lp6317
I1941
aI1967
aI3672
aI7111
aI8450
aI9022
asS'GAAACC'
p6318
(lp6319
I552
aI8501
asS'CTATGT'
p6320
(lp6321
I2926
aI8399
asS'CCTGCC'
p6322
(lp6323
I5069
asS'GAAACT'
p6324
(lp6325
I4120
aI6567
asS'AGAATG'
p6326
(lp6327
I53
aI1264
aI2391
aI3206
aI4944
aI7974
asS'AGAATA'
p6328
(lp6329
I64
aI2000
aI2100
aI3974
aI7641
asS'AGAATC'
p6330
(lp6331
I47
aI3075
aI4229
aI4798
aI5998
asS'CTGAGC'
p6332
(lp6333
I592
aI2657
aI3658
aI5430
aI6368
asS'CTGAGA'
p6334
(lp6335
I4424
aI4456
aI7932
aI9222
asS'CTGAGG'
p6336
(lp6337
I2435
aI4563
aI7410
aI7904
asS'CATACC'
p6338
(lp6339
I1278
asS'CATACA'
p6340
(lp6341
I6316
aI8243
asS'CATACG'
p6342
(lp6343
I2406
aI6906
asS'TCAAAT'
p6344
(lp6345
I1759
aI3357
aI4285
asS'GTCCAT'
p6346
(lp6347
I6936
asS'AGGGGT'
p6348
(lp6349
I1442
aI9623
asS'CAGGAC'
p6350
(lp6351
I108
aI723
aI9125
asS'CATACT'
p6352
(lp6353
I2613
asS'AATGGC'
p6354
(lp6355
I4946
aI5549
asS'GTCCAG'
p6356
(lp6357
I5620
asS'CAAGCT'
p6358
(lp6359
I5312
aI7191
aI7666
asS'TCAAAG'
p6360
(lp6361
I5833
aI7283
aI8986
aI9937
asS'GTCCAC'
p6362
(lp6363
I1489
aI8296
asS'GTCCAA'
p6364
(lp6365
I10
aI7740
asS'CGGCGG'
p6366
(lp6367
I1201
aI9395
asS'TTGATG'
p6368
(lp6369
I1253
aI8255
asS'ATCGAG'
p6370
(lp6371
I1653
aI3735
aI5809
aI7259
aI8962
aI9913
asS'CGGCGC'
p6372
(lp6373
I2349
aI7889
asS'TTGATC'
p6374
(lp6375
I1360
asS'TTGATA'
p6376
(lp6377
I1667
asS'TTGATT'
p6378
(lp6379
I374
aI6480
aI7347
asS'CGAGTG'
p6380
(lp6381
I2491
aI2699
aI3260
aI6831
asS'ATGGCC'
p6382
(lp6383
I9354
asS'AAGCTG'
p6384
(lp6385
I7667
asS'ATCCCG'
p6386
(lp6387
I7245
aI9096
asS'TCCAAC'
p6388
(lp6389
I11
asS'CGGTTA'
p6390
(lp6391
I3136
aI3877
asS'CGGTTC'
p6392
(lp6393
I3353
asS'GCTGTT'
p6394
(lp6395
I5696
asS'CGGTTG'
p6396
(lp6397
I7756
aI8010
asS'GGTTTG'
p6398
(lp6399
I7122
aI8167
asS'TATAAA'
p6400
(lp6401
I4417
aI7295
aI8998
asS'CGTACG'
p6402
(lp6403
I1626
aI3328
aI6177
aI8850
asS'GCTGTG'
p6404
(lp6405
I458
aI2779
aI3430
aI4217
aI5012
aI6974
asS'GCTGTC'
p6406
(lp6407
I29
aI2968
aI9990
asS'GTAAAT'
p6408
(lp6409
I6606
asS'GCTGTA'
p6410
(lp6411
I4637
aI5823
aI7273
aI7994
aI8976
aI9927
asS'GGGAGG'
p6412
(lp6413
I7680
aI9004
asS'TATGCG'
p6414
(lp6415
I5172
aI7815
asS'TCTCAA'
p6416
(lp6417
I4600
asS'GCATTT'
p6418
(lp6419
I7550
aI9963
asS'AGGTTC'
p6420
(lp6421
I3481
aI6678
asS'AGGTTA'
p6422
(lp6423
I2446
aI5758
aI7379
asS'TCCATA'
p6424
(lp6425
I667
aI6314
asS'TTTTTC'
p6426
(lp6427
I1860
aI3190
aI7987
asS'TCCATC'
p6428
(lp6429
I1289
aI6021
aI6139
aI6542
aI6586
asS'TTTTTA'
p6430
(lp6431
I2468
asS'TCCTCT'
p6432
(lp6433
I4088
asS'TTTTTG'
p6434
(lp6435
I2835
asS'TCCATG'
p6436
(lp6437
I1673
aI4475
asS'TTAAAT'
p6438
(lp6439
I508
aI3059
aI7804
asS'ACATAT'
p6440
(lp6441
I3930
aI5302
asS'TTAAAC'
p6442
(lp6443
I3880
aI5761
aI5939
aI8561
asS'TTAAAA'
p6444
(lp6445
I8544
aI9162
asS'ACTCCG'
p6446
(lp6447
I9344
asS'ACTCCA'
p6448
(lp6449
I524
aI4473
asS'TTTTTT'
p6450
(lp6451
I7986
asS'ACTCCC'
p6452
(lp6453
I5366
aI5730
asS'TAGGCT'
p6454
(lp6455
I661
aI940
aI1526
asS'TTTACG'
p6456
(lp6457
I2314
aI6969
asS'CTGTAC'
p6458
(lp6459
I2617
aI4865
aI8951
asS'GCAACT'
p6460
(lp6461
I4470
aI8856
asS'GTCACC'
p6462
(lp6463
I774
asS'CTGTAG'
p6464
(lp6465
I547
aI729
aI7995
asS'GTCACA'
p6466
(lp6467
I3707
aI8463
asS'GCAACG'
p6468
(lp6469
I1936
aI2725
aI5515
asS'GTCACT'
p6470
(lp6471
I200
aI521
aI2241
aI3638
aI5051
aI5363
aI6811
aI6911
aI9735
asS'TAGGCG'
p6472
(lp6473
I4576
aI7439
asS'GCAACC'
p6474
(lp6475
I3830
asS'CTGTAT'
p6476
(lp6477
I1283
aI4638
aI5824
aI7274
aI8977
aI9928
asS'GCAACA'
p6478
(lp6479
I1920
aI5601
aI5687
asS'TAGGCC'
p6480
(lp6481
I253
aI8613
asS'GCGATT'
p6482
(lp6483
I575
aI2530
aI5224
asS'TTCACT'
p6484
(lp6485
I7196
aI8507
asS'GTCTCT'
p6486
(lp6487
I8000
asS'AACATT'
p6488
(lp6489
I5044
asS'ATTCAA'
p6490
(lp6491
I386
aI7606
asS'ATTCAC'
p6492
(lp6493
I3099
aI4483
asS'GTCTCC'
p6494
(lp6495
I2665
aI2861
aI9112
asS'GTCTCA'
p6496
(lp6497
I3818
aI4659
aI5530
aI6822
aI7691
aI7697
aI9969
asS'GCGATG'
p6498
(lp6499
I5219
aI8496
aI8804
aI9484
asS'TTCACC'
p6500
(lp6501
I3100
aI9606
asS'TCGTGC'
p6502
(lp6503
I262
aI1980
aI2647
asS'GCGATC'
p6504
(lp6505
I3753
aI7927
aI9013
asS'GAAGGC'
p6506
(lp6507
I3125
aI3715
asS'TCTACA'
p6508
(lp6509
I8879
aI9598
asS'GAAGGA'
p6510
(lp6511
I243
asS'AACTGC'
p6512
(lp6513
I4122
aI8574
asS'GAAGGG'
p6514
(lp6515
I1142
aI6148
asS'CGATTA'
p6516
(lp6517
I5225
aI5724
asS'CAATCT'
p6518
(lp6519
I1924
aI5420
aI8947
asS'GGAACA'
p6520
(lp6521
I477
aI2070
aI5859
aI6666
asS'GGAACG'
p6522
(lp6523
I1116
aI8867
asS'CGATTT'
p6524
(lp6525
I576
aI2531
aI9230
asS'GAAGGT'
p6526
(lp6527
I5930
aI6676
aI7353
aI8627
asS'CTCGCT'
p6528
(lp6529
I3869
aI8689
asS'CAATCG'
p6530
(lp6531
I6288
asS'TACTGA'
p6532
(lp6533
I2433
asS'CAATCC'
p6534
(lp6535
I399
aI584
aI1407
asS'TCCTGA'
p6536
(lp6537
I865
aI1549
aI2864
aI9544
asS'AGTCCA'
p6538
(lp6539
I9
asS'TCCTGC'
p6540
(lp6541
I708
aI1764
aI2586
aI4496
asS'ACTAAG'
p6542
(lp6543
I203
asS'ACTAAA'
p6544
(lp6545
I5454
aI7022
asS'TCCTGG'
p6546
(lp6547
I402
asS'ACTAAC'
p6548
(lp6549
I2709
aI2825
aI3323
aI5450
aI6570
asS'TAACGC'
p6550
(lp6551
I1500
aI5789
asS'TAACGA'
p6552
(lp6553
I37
aI3424
asS'TAACGG'
p6554
(lp6555
I671
aI835
asS'CAGCTC'
p6556
(lp6557
I2281
aI3850
aI4203
aI5146
aI8151
asS'ACTAAT'
p6558
(lp6559
I641
aI1003
aI5712
asS'AGTCCT'
p6560
(lp6561
I1632
aI1810
aI4086
asS'TCCTGT'
p6562
(lp6563
I1778
aI7130
asS'TAACGT'
p6564
(lp6565
I3325
aI7389
aI8552
asS'TTGACC'
p6566
(lp6567
I5656
asS'GTACTT'
p6568
(lp6569
I4379
aI4838
aI6769
aI7865
asS'TTGTTC'
p6570
(lp6571
I4141
aI5850
aI6706
aI8827
asS'CCGAGG'
p6572
(lp6573
I556
aI3374
aI9586
asS'TTGTTG'
p6574
(lp6575
I988
asS'AGGAAG'
p6576
(lp6577
I4607
aI5136
asS'CCGAGC'
p6578
(lp6579
I2961
aI4213
aI9347
asS'CCGCGT'
p6580
(lp6581
I1623
aI2184
aI5985
asS'CGACAC'
p6582
(lp6583
I531
aI2802
aI4094
aI4722
asS'CGACAA'
p6584
(lp6585
I7397
asS'GTACTA'
p6586
(lp6587
I499
aI606
asS'CCGCGC'
p6588
(lp6589
I6886
asS'CCGAGT'
p6590
(lp6591
I2490
aI2698
aI8371
asS'CCGCGG'
p6592
(lp6593
I444
aI3689
aI4172
aI5118
aI7591
aI9099
asS'TTGTTT'
p6594
(lp6595
I5180
asS'GCATAT'
p6596
(lp6597
I8513
asS'AACATG'
p6598
(lp6599
I1943
aI3674
aI4267
aI7113
asS'GGAGGC'
p6600
(lp6601
I1269
aI9005
asS'AATAAC'
p6602
(lp6603
I738
aI3107
aI4024
aI6388
asS'AATAAA'
p6604
(lp6605
I6503
asS'AATAAG'
p6606
(lp6607
I7637
asS'TGGTAC'
p6608
(lp6609
I9902
asS'CATTCC'
p6610
(lp6611
I7894
asS'AATAAT'
p6612
(lp6613
I3407
aI7303
asS'CCAACC'
p6614
(lp6615
I2870
aI3791
asS'CTCAGT'
p6616
(lp6617
I3853
aI7693
asS'CCAACG'
p6618
(lp6619
I12
aI4184
aI4755
aI8762
aI9560
asS'CGCCGC'
p6620
(lp6621
I961
aI5116
aI5597
aI5608
aI7186
aI7899
asS'AGTAAA'
p6622
(lp6623
I977
aI1704
aI7913
asS'CGCCGA'
p6624
(lp6625
I6106
asS'GAGTAG'
p6626
(lp6627
I658
aI5665
aI9421
aI9829
asS'TCGAGT'
p6628
(lp6629
I2269
asS'GAGTAA'
p6630
(lp6631
I1703
aI2271
aI4460
aI5123
asS'AGTAAG'
p6632
(lp6633
I686
aI5124
asS'CTCAGG'
p6634
(lp6635
I1416
aI5744
aI9971
asS'CTAAAA'
p6636
(lp6637
I5455
aI6924
aI7023
asS'CTCAGC'
p6638
(lp6639
I6824
asS'CTCAGA'
p6640
(lp6641
I4385
aI4844
aI6775
aI7871
aI9028
asS'GGCGAA'
p6642
(lp6643
I2840
aI4578
asS'TCGAGA'
p6644
(lp6645
I810
aI1654
aI2932
aI3736
aI8346
asS'GTGTAG'
p6646
(lp6647
I468
aI7685
aI8101
aI8217
asS'TCGAGC'
p6648
(lp6649
I5810
aI6184
aI7260
aI8963
aI9914
asS'GTGTAA'
p6650
(lp6651
I1696
aI3263
aI8067
asS'GTGTAC'
p6652
(lp6653
I1018
aI6197
aI9181
asS'CGCCGT'
p6654
(lp6655
I1393
asS'GTGGCA'
p6656
(lp6657
I5289
aI5512
asS'CATATT'
p6658
(lp6659
I761
aI8330
asS'ATCGTA'
p6660
(lp6661
I1033
aI4369
aI4828
aI6759
aI7535
aI7855
aI8303
aI9269
asS'CTCGGC'
p6662
(lp6663
I7546
aI8004
asS'GCCGCC'
p6664
(lp6665
I4242
aI6979
asS'GCCGCA'
p6666
(lp6667
I962
aI5598
aI5609
aI7187
asS'GCCGCG'
p6668
(lp6669
I443
aI1622
aI5117
aI6885
asS'ACACTT'
p6670
(lp6671
I480
aI1054
aI3683
aI6669
aI9663
asS'CTCGGT'
p6672
(lp6673
I3875
asS'CATATC'
p6674
(lp6675
I4791
asS'CATATA'
p6676
(lp6677
I616
aI8514
asS'GTCAGC'
p6678
(lp6679
I6119
aI8149
asS'ACACTC'
p6680
(lp6681
I2760
aI2811
aI9025
asS'ACACTG'
p6682
(lp6683
I1315
aI3561
aI6096
asS'GCCGCT'
p6684
(lp6685
I6364
aI7900
asS'ACCGGA'
p6686
(lp6687
I856
asS'AAATAA'
p6688
(lp6689
I3406
aI4023
aI6387
aI6502
aI7302
asS'ACCGGC'
p6690
(lp6691
I4326
asS'CTTTAG'
p6692
(lp6693
I494
aI1636
asS'CTTTAA'
p6694
(lp6695
I483
aI2765
aI7530
aI8860
aI9849
asS'AATCCT'
p6696
(lp6697
I400
aI1762
aI1776
aI5715
asS'AAATAG'
p6698
(lp6699
I7093
asS'AACTTA'
p6700
(lp6701
I694
aI5350
aI5942
aI6960
asS'CAGGTA'
p6702
(lp6703
I9778
asS'AACTTC'
p6704
(lp6705
I2921
aI7961
asS'CAGGTC'
p6706
(lp6707
I6852
asS'CACGAC'
p6708
(lp6709
I803
aI1097
aI2155
aI3166
asS'CACGAA'
p6710
(lp6711
I300
aI9019
asS'CAGGTG'
p6712
(lp6713
I3720
asS'AATCCC'
p6714
(lp6715
I585
aI1851
aI2275
aI3176
aI9095
asS'AATCCA'
p6716
(lp6717
I309
aI4800
asS'AAATAT'
p6718
(lp6719
I1602
aI3336
aI6240
aI8547
asS'AATCCG'
p6720
(lp6721
I1408
aI5112
aI7576
asS'GATACA'
p6722
(lp6723
I5416
aI5970
aI9446
asS'CACGAT'
p6724
(lp6725
I2122
aI5613
asS'CAGGTT'
p6726
(lp6727
I3480
aI5757
aI7378
asS'AACTTT'
p6728
(lp6729
I1902
aI8858
asS'CCCGCA'
p6730
(lp6731
I8286
asS'GGGATA'
p6732
(lp6733
I6347
aI6559
aI7483
asS'GGGATC'
p6734
(lp6735
I9552
asS'GGGTGT'
p6736
(lp6737
I9506
asS'GGAGAT'
p6738
(lp6739
I4971
asS'CGCAGT'
p6740
(lp6741
I964
aI4041
aI4320
aI5840
aI6405
aI7290
aI8993
aI9944
asS'GAGCCT'
p6742
(lp6743
I594
asS'GGAGAC'
p6744
(lp6745
I1258
aI2913
aI7075
aI8023
aI8898
asS'GGGTGA'
p6746
(lp6747
I5520
aI6271
aI6526
asS'GGAGAA'
p6748
(lp6749
I2673
aI6145
asS'GGGTGC'
p6750
(lp6751
I2248
aI8737
asS'GGGATT'
p6752
(lp6753
I675
aI1320
aI1730
aI4686
aI8362
asS'AATCAA'
p6754
(lp6755
I7446
asS'GGGTGG'
p6756
(lp6757
I3284
aI4507
asS'GAGCCA'
p6758
(lp6759
I1403
aI2659
aI5812
aI7262
aI8239
aI8965
aI9916
asS'CGCAGG'
p6760
(lp6761
I2061
aI3280
aI7014
asS'GATGCG'
p6762
(lp6763
I5221
aI5670
asS'CGCAGA'
p6764
(lp6765
I6235
asS'GATGCA'
p6766
(lp6767
I933
asS'GAGCCG'
p6768
(lp6769
I1620
aI2958
aI3660
asS'GATGCC'
p6770
(lp6771
I3566
aI8257
asS'CGGATT'
p6772
(lp6773
I383
aI858
asS'GGTTCT'
p6774
(lp6775
I9799
asS'GGTAGT'
p6776
(lp6777
I4083
aI5772
asS'ACCCCT'
p6778
(lp6779
I1482
aI8072
aI8198
aI8211
asS'GCCAAT'
p6780
(lp6781
I1405
aI3569
asS'GGCGGG'
p6782
(lp6783
I4504
aI5328
aI6474
asS'AGAAGT'
p6784
(lp6785
I2675
aI3315
aI9434
asS'ACCCCA'
p6786
(lp6787
I1245
aI1513
aI2985
asS'GGTAGA'
p6788
(lp6789
I1061
aI9237
asS'ACCCCC'
p6790
(lp6791
I1010
aI2076
aI3794
aI5388
aI7884
asS'GGTAGC'
p6792
(lp6793
I3598
aI9651
asS'GCCAAG'
p6794
(lp6795
I148
aI2202
aI4739
aI9646
asS'CGGATA'
p6796
(lp6797
I1204
aI4129
asS'ACCCCG'
p6798
(lp6799
I5535
aI6011
asS'GGTAGG'
p6800
(lp6801
I1713
aI7437
aI8630
aI9408
aI9724
asS'AGAAGA'
p6802
(lp6803
I998
aI2631
aI5294
aI7423
aI7426
asS'AGAAGC'
p6804
(lp6805
I4805
aI6736
aI7786
asS'GCAAGA'
p6806
(lp6807
I6598
aI7672
aI7971
asS'AGAAGG'
p6808
(lp6809
I5929
aI6147
asS'CACTCC'
p6810
(lp6811
I523
aI5365
aI8677
asS'CCCCGT'
p6812
(lp6813
I1014
aI8717
asS'CACTCG'
p6814
(lp6815
I7544
aI8579
asS'TGCGTT'
p6816
(lp6817
I969
aI2464
asS'CGGATG'
p6818
(lp6819
I9046
asS'TCAGCT'
p6820
(lp6821
I6120
aI8150
asS'AGCTTT'
p6822
(lp6823
I492
aI5314
aI9866
asS'CCCCGG'
p6824
(lp6825
I7886
asS'TGCGTA'
p6826
(lp6827
I5381
aI8127
asS'TGCGTG'
p6828
(lp6829
I462
aI1232
asS'CACTCT'
p6830
(lp6831
I1492
aI2761
asS'AGCTTC'
p6832
(lp6833
I1545
aI7193
asS'GAGCCC'
p6834
(lp6835
I4751
aI6800
asS'AGCTTA'
p6836
(lp6837
I1868
asS'AGCTTG'
p6838
(lp6839
I1737
aI6632
asS'ATACGA'
p6840
(lp6841
I1467
aI2014
aI2232
asS'TTAGCT'
p6842
(lp6843
I5945
aI9864
asS'GTATAA'
p6844
(lp6845
I4416
aI5844
aI7294
aI8997
aI9948
asS'TTAGCC'
p6846
(lp6847
I1476
aI2449
aI2457
aI6361
asS'GCACTG'
p6848
(lp6849
I5479
asS'TTAGCA'
p6850
(lp6851
I1151
aI3471
aI5334
aI9333
asS'CTAGCA'
p6852
(lp6853
I6074
asS'TTAGCG'
p6854
(lp6855
I4876
asS'CTTCAT'
p6856
(lp6857
I3054
aI3270
aI5868
aI6617
asS'ATAGGT'
p6858
(lp6859
I880
aI4314
aI4669
aI7457
asS'TGTGCT'
p6860
(lp6861
I4854
aI5444
aI8600
aI9214
asS'AAGGGC'
p6862
(lp6863
I2205
aI2221
asS'ATAAGC'
p6864
(lp6865
I5592
aI7370
asS'AAGGGA'
p6866
(lp6867
I4684
aI6149
aI6228
aI9002
asS'ATAAGA'
p6868
(lp6869
I2163
aI7638
asS'CTACTC'
p6870
(lp6871
I9301
asS'CCAGAA'
p6872
(lp6873
I2629
aI3669
aI4803
aI7650
asS'CCAGAG'
p6874
(lp6875
I9262
asS'TGTGCG'
p6876
(lp6877
I460
aI3935
asS'AAGGGT'
p6878
(lp6879
I1143
aI7562
asS'TGTGCC'
p6880
(lp6881
I4736
aI6976
asS'ATAGGA'
p6882
(lp6883
I2886
aI8477
asS'TGTGCA'
p6884
(lp6885
I5684
aI8402
asS'ATAGGC'
p6886
(lp6887
I252
asS'GCTCGC'
p6888
(lp6889
I7183
aI8688
aI8696
asS'ATACGC'
p6890
(lp6891
I2407
aI5819
aI7269
aI8972
aI9923
asS'TTTGCG'
p6892
(lp6893
I3987
aI5318
asS'AGACCG'
p6894
(lp6895
I7077
asS'CCAGAT'
p6896
(lp6897
I5815
aI6581
aI7265
aI8968
aI9919
asS'AGACAA'
p6898
(lp6899
I4427
asS'GACGCA'
p6900
(lp6901
I3162
aI3582
aI7569
asS'CGTGGT'
p6902
(lp6903
I464
aI7625
asS'TCCATT'
p6904
(lp6905
I6937
asS'AGACAG'
p6906
(lp6907
I1260
aI3448
aI7219
aI7496
aI7675
aI9885
asS'GCTTTT'
p6908
(lp6909
I5315
asS'TTTTCT'
p6910
(lp6911
I1861
aI8341
aI9712
asS'CGCTGT'
p6912
(lp6913
I28
aI2778
aI5695
aI5822
aI6973
aI7272
aI8975
aI9926
asS'CCCACG'
p6914
(lp6915
I9246
asS'CGTGGG'
p6916
(lp6917
I3859
aI6430
asS'AGACAT'
p6918
(lp6919
I1275
aI6356
asS'CGTGGA'
p6920
(lp6921
I914
aI4708
aI5003
asS'TTTTCG'
p6922
(lp6923
I7988
asS'CGCTGA'
p6924
(lp6925
I1791
aI3521
aI6366
aI7902
asS'CGCTGC'
p6926
(lp6927
I295
aI2973
aI6889
aI7769
aI8124
asS'TTTTCC'
p6928
(lp6929
I1835
aI2548
aI3191
aI3393
aI4936
asS'CAGCGA'
p6930
(lp6931
I3905
aI5661
aI6088
aI8467
aI8802
asS'CGCTGG'
p6932
(lp6933
I1368
aI5324
asS'TATGGA'
p6934
(lp6935
I9442
asS'TATGGC'
p6936
(lp6937
I2690
aI5564
aI9353
asS'CGTAGG'
p6938
(lp6939
I3365
aI4015
aI4574
asS'GACGCG'
p6940
(lp6941
I1089
aI3909
aI7657
aI8754
asS'TATGGG'
p6942
(lp6943
I177
asS'CGTAGC'
p6944
(lp6945
I2192
aI5988
aI6644
aI9250
aI9986
asS'CTTCAG'
p6946
(lp6947
I4225
aI9150
asS'AAGTGT'
p6948
(lp6949
I3293
aI6195
aI9593
asS'TGGACT'
p6950
(lp6951
I6125
asS'CGTAGT'
p6952
(lp6953
I683
aI3002
aI4371
aI4765
aI4830
aI5637
aI6761
aI7857
asS'ATTCCT'
p6954
(lp6955
I9859
asS'TGGACA'
p6956
(lp6957
I2039
aI3959
aI5086
aI7314
aI7467
asS'TGGACC'
p6958
(lp6959
I410
aI4897
asS'TGGACG'
p6960
(lp6961
I1084
aI8377
asS'CCGGTT'
p6962
(lp6963
I3135
aI8009
asS'CTAGCT'
p6964
(lp6965
I2412
aI8693
aI9803
asS'GCTTGA'
p6966
(lp6967
I1529
aI1665
aI6633
aI7345
aI8623
asS'TGAGAC'
p6968
(lp6969
I3446
aI4425
aI6354
aI7933
asS'GCTTGC'
p6970
(lp6971
I6495
asS'TGAGAA'
p6972
(lp6973
I6787
aI9223
asS'GCCAAC'
p6974
(lp6975
I6982
aI8761
aI9896
asS'TGAGAG'
p6976
(lp6977
I4457
aI4654
aI7032
asS'GCTTGG'
p6978
(lp6979
I2440
aI3342
aI3956
aI5083
aI6267
aI7311
aI7464
asS'CCTGTT'
p6980
(lp6981
I8201
asS'CCGGTG'
p6982
(lp6983
I2197
aI2741
aI4411
aI6055
aI7748
asS'CCGGTC'
p6984
(lp6985
I1380
aI2622
aI6819
aI7229
aI8293
asS'CCGGTA'
p6986
(lp6987
I1711
aI9406
asS'CCTGTC'
p6988
(lp6989
I3151
aI3917
aI3946
aI6804
aI7131
asS'CCTGTA'
p6990
(lp6991
I728
aI1282
asS'CTCGCC'
p6992
(lp6993
I950
aI4621
aI6104
aI7184
asS'GCTTGT'
p6994
(lp6995
I1738
aI5441
aI9104
asS'GGTTGT'
p6996
(lp6997
I4392
aI4851
aI6327
aI6782
aI7878
asS'CCCAAC'
p6998
(lp6999
I4183
aI4754
aI6283
asS'CGTCTG'
p7000
(lp7001
I4919
asS'TAGCGT'
p7002
(lp7003
I4762
aI4877
aI9832
asS'GGTTGG'
p7004
(lp7005
I8011
asS'GGTTGA'
p7006
(lp7007
I6478
aI7565
asS'TTCACG'
p7008
(lp7009
I6307
aI6442
aI8846
aI9668
asS'GGTTGC'
p7010
(lp7011
I561
aI7757
aI9073
asS'GAAAGT'
p7012
(lp7013
I6637
aI7780
aI8086
asS'TCCCGC'
p7014
(lp7015
I2182
aI8285
aI9097
asS'GTAACG'
p7016
(lp7017
I36
aI3423
asS'TCCCGG'
p7018
(lp7019
I1378
aI1426
aI5906
aI5913
aI7775
asS'TGCTAT'
p7020
(lp7021
I2882
aI7812
aI8602
aI9439
asS'CGTTTT'
p7022
(lp7023
I1833
aI2466
aI8339
asS'ATTCTC'
p7024
(lp7025
I321
aI861
aI2517
aI5902
asS'ATTCTG'
p7026
(lp7027
I422
aI3655
aI9744
asS'GTAACT'
p7028
(lp7029
I1900
asS'CAGCGC'
p7030
(lp7031
I958
aI5605
aI6826
aI9337
aI9373
aI9888
asS'CAGCGG'
p7032
(lp7033
I1112
aI1894
aI2751
aI6996
asS'CCTTGT'
p7034
(lp7035
I3798
aI4139
aI8434
aI8681
asS'TCATTC'
p7036
(lp7037
I4481
aI7700
asS'TCATTA'
p7038
(lp7039
I2951
aI3056
aI3083
aI3272
asS'CGTTTA'
p7040
(lp7041
I901
aI971
aI3698
asS'ATTCTT'
p7042
(lp7043
I7702
aI8728
asS'CGTTTC'
p7044
(lp7045
I6135
aI6439
asS'TGGCAA'
p7046
(lp7047
I3183
aI5513
aI6946
asS'TGGCAC'
p7048
(lp7049
I8769
asS'TGGCAG'
p7050
(lp7051
I3970
aI5097
aI5290
aI7325
aI7478
aI9307
asS'GGCCGT'
p7052
(lp7053
I1451
aI9356
asS'GCTGAA'
p7054
(lp7055
I1341
aI5346
asS'GCTGAC'
p7056
(lp7057
I3926
aI7103
aI9217
asS'TGGCAT'
p7058
(lp7059
I5551
asS'GCTGAT'
p7060
(lp7061
I1792
aI3522
asS'CCGATG'
p7062
(lp7063
I3486
asS'CAGCCG'
p7064
(lp7065
I8290
asS'GGCCGA'
p7066
(lp7067
I3372
aI4211
aI8615
aI9053
asS'GGCAAT'
p7068
(lp7069
I2114
aI3118
aI4108
asS'CTGATT'
p7070
(lp7071
I1793
aI2522
aI2544
aI2597
asS'CCATCG'
p7072
(lp7073
I259
aI1290
aI5188
aI6140
aI6587
aI7360
asS'CCATCC'
p7074
(lp7075
I4677
aI6543
asS'CCATCA'
p7076
(lp7077
I2006
aI6022
asS'CTGATC'
p7078
(lp7079
I338
aI1650
aI3523
aI9747
asS'CTGATA'
p7080
(lp7081
I2686
aI6987
aI9739
asS'GTACCA'
p7082
(lp7083
I1455
aI6199
asS'GGCAAC'
p7084
(lp7085
I1935
aI5514
aI8855
asS'GGCAAA'
p7086
(lp7087
I636
aI4020
aI4273
aI6384
aI6947
aI7908
aI8634
asS'CTAAAG'
p7088
(lp7089
I3045
aI4195
aI5397
aI7966
aI9416
asS'CCATCT'
p7090
(lp7091
I1173
asS'CTAAAC'
p7092
(lp7093
I1168
aI2732
asS'GTACCG'
p7094
(lp7095
I1883
aI2619
aI2938
aI4324
aI8368
asS'GACACC'
p7096
(lp7097
I4400
aI4723
asS'GACACA'
p7098
(lp7099
I532
aI1106
aI4095
asS'GACACG'
p7100
(lp7101
I1095
aI2803
asS'GCGCCT'
p7102
(lp7103
I208
aI9466
asS'TACGAG'
p7104
(lp7105
I1468
aI1628
asS'TACGAC'
p7106
(lp7107
I2233
aI8810
asS'TACGAA'
p7108
(lp7109
I2015
aI5060
asS'GGCGAT'
p7110
(lp7111
I5218
aI9483
asS'CGTGAG'
p7112
(lp7113
I6509
aI7030
aI8230
aI9826
asS'TGTTAC'
p7114
(lp7115
I4914
aI5307
aI6155
aI8203
asS'ACGCTG'
p7116
(lp7117
I294
aI5821
aI6972
aI7271
aI8123
aI8974
aI9925
asS'CTATTA'
p7118
(lp7119
I505
aI1823
aI6113
aI6423
asS'GCATAC'
p7120
(lp7121
I2612
asS'TCGATG'
p7122
(lp7123
I3950
aI7160
asS'TCGAGG'
p7124
(lp7125
I127
aI632
aI5854
aI8077
asS'TCGATC'
p7126
(lp7127
I704
aI1293
aI9511
asS'CTATTT'
p7128
(lp7129
I2107
aI4293
asS'CGCGAA'
p7130
(lp7131
I7659
aI9516
aI9672
asS'GAACTG'
p7132
(lp7133
I2594
aI7519
asS'TCGATT'
p7134
(lp7135
I3620
asS'CTACCG'
p7136
(lp7137
I2695
aI3069
aI9753
asS'GAGTTG'
p7138
(lp7139
I5177
aI6460
aI8373
asS'ACAATG'
p7140
(lp7141
I3761
aI4487
aI7399
asS'AACCAA'
p7142
(lp7143
I2828
aI5876
aI6080
aI7066
asS'TTCACA'
p7144
(lp7145
I4235
aI4484
asS'AACCAC'
p7146
(lp7147
I280
aI741
aI800
aI2872
asS'TGCCGC'
p7148
(lp7149
I442
aI6978
asS'TGCCGA'
p7150
(lp7151
I361
aI2138
asS'AGCAGG'
p7152
(lp7153
I8221
aI9620
asS'TCTGGA'
p7154
(lp7155
I1399
aI4895
asS'GAGTTC'
p7156
(lp7157
I123
aI2784
aI8817
asS'TGCCGT'
p7158
(lp7159
I265
aI680
asS'AACCAT'
p7160
(lp7161
I1171
aI3832
aI3838
asS'AACAGA'
p7162
(lp7163
I3253
aI8351
asS'ACGTCG'
p7164
(lp7165
I570
aI8027
aI9391
asS'AACAGC'
p7166
(lp7167
I1828
aI4201
aI5603
aI5764
aI6086
asS'ACGAAG'
p7168
(lp7169
I2016
asS'AACAGG'
p7170
(lp7171
I4604
asS'CTACCA'
p7172
(lp7173
I76
asS'GACGAC'
p7174
(lp7175
I1086
aI6275
asS'AGCAGC'
p7176
(lp7177
I2964
aI9335
asS'GACGAA'
p7178
(lp7179
I2904
aI5249
aI7516
aI8379
asS'GACGAG'
p7180
(lp7181
I655
aI4632
aI8885
asS'CTACCT'
p7182
(lp7183
I598
aI1960
aI5488
aI9200
asS'GGGAGA'
p7184
(lp7185
I2912
aI8022
asS'AACAGT'
p7186
(lp7187
I1969
aI4027
aI6391
aI7610
aI9952
asS'CCCAAT'
p7188
(lp7189
I2987
asS'GACGAT'
p7190
(lp7191
I930
aI2298
aI3169
asS'GGGCGC'
p7192
(lp7193
I7766
asS'GGGCGA'
p7194
(lp7195
I8094
asS'GCATCA'
p7196
(lp7197
I6514
aI6902
aI8489
asS'GGGCGG'
p7198
(lp7199
I2364
asS'TCTCTT'
p7200
(lp7201
I5205
aI9275
asS'TGGGGG'
p7202
(lp7203
I3724
aI6556
aI6697
aI8734
aI9875
asS'TCATAC'
p7204
(lp7205
I6905
asS'CAGAAT'
p7206
(lp7207
I52
aI626
aI1263
aI3973
aI4228
aI4444
aI8353
asS'ACGACT'
p7208
(lp7209
I1098
aI2234
aI6276
asS'TCTCTC'
p7210
(lp7211
I8001
asS'TCTCTG'
p7212
(lp7213
I323
aI2519
asS'ACGACC'
p7214
(lp7215
I804
aI2156
asS'CAGAAC'
p7216
(lp7217
I3255
asS'ACGACG'
p7218
(lp7219
I1087
aI3167
aI8811
asS'CAGAAG'
p7220
(lp7221
I997
aI2630
aI4804
aI5293
asS'CACTTT'
p7222
(lp7223
I481
aI9664
asS'CCTAAT'
p7224
(lp7225
I164
aI3104
asS'TCTATA'
p7226
(lp7227
I9820
asS'GCATTC'
p7228
(lp7229
I5900
aI7893
asS'CACTTG'
p7230
(lp7231
I1055
aI3640
aI6670
asS'CCTAAC'
p7232
(lp7233
I797
asS'CTACCC'
p7234
(lp7235
I7339
asS'CCTAAA'
p7236
(lp7237
I9415
asS'CACTTC'
p7238
(lp7239
I3684
asS'CCTAAG'
p7240
(lp7241
I2323
aI3196
aI4681
asS'CACTTA'
p7242
(lp7243
I4538
asS'GTCCCA'
p7244
(lp7245
I5461
aI7601
asS'CTGCGG'
p7246
(lp7247
I1766
aI8044
asS'AAGATT'
p7248
(lp7249
I5963
aI8408
asS'AACTAG'
p7250
(lp7251
I6713
asS'ATCGAT'
p7252
(lp7253
I1292
aI3619
aI7143
asS'GACTCG'
p7254
(lp7255
I2236
aI6655
aI7823
asS'CTCATC'
p7256
(lp7257
I4529
asS'GACTCC'
p7258
(lp7259
I9343
asS'CTCATA'
p7260
(lp7261
I2814
asS'GACTCA'
p7262
(lp7263
I2509
asS'AAGATA'
p7264
(lp7265
I877
aI5589
aI7088
asS'AAGATG'
p7266
(lp7267
I6600
aI9063
asS'GACTCT'
p7268
(lp7269
I8779
aI9040
asS'CTGCGC'
p7270
(lp7271
I394
aI1331
aI4124
asS'ATCGAA'
p7272
(lp7273
I2330
aI9783
asS'ATATTT'
p7274
(lp7275
I762
aI2991
asS'GGACTC'
p7276
(lp7277
I6654
aI7822
asS'ATAGTT'
p7278
(lp7279
I1587
aI2562
aI7644
asS'TACTGT'
p7280
(lp7281
I545
aI2615
aI3388
aI9184
asS'ATATTC'
p7282
(lp7283
I420
aI6244
aI9742
asS'ATATTA'
p7284
(lp7285
I4642
asS'ATATTG'
p7286
(lp7287
I1604
aI2720
aI5703
aI8331
asS'ATAGTA'
p7288
(lp7289
I716
aI4132
aI4260
aI9079
asS'ATAGTC'
p7290
(lp7291
I1808
aI4703
aI5339
aI7095
asS'TACTGG'
p7292
(lp7293
I2174
aI5354
asS'ATAGTG'
p7294
(lp7295
I9171
asS'CAGGCA'
p7296
(lp7297
I1749
aI6848
asS'ACGGAA'
p7298
(lp7299
I3712
asS'CATCCG'
p7300
(lp7301
I1213
aI6189
asS'AGGAAA'
p7302
(lp7303
I42
aI1687
aI3631
aI4775
aI4990
aI5274
asS'CATCCA'
p7304
(lp7305
I352
aI4531
aI6540
aI6544
aI9259
asS'CAGGCG'
p7306
(lp7307
I6472
aI7499
aI8223
aI8774
aI9310
asS'TTATGA'
p7308
(lp7309
I2505
asS'TTATGC'
p7310
(lp7311
I1558
aI4302
aI4521
aI5896
asS'CGGAGT'
p7312
(lp7313
I5121
aI8052
aI8815
asS'TTATGG'
p7314
(lp7315
I5563
asS'CATCCT'
p7316
(lp7317
I4678
aI7128
aI9542
asS'AGGAAT'
p7318
(lp7319
I5235
aI9498
aI9727
asS'CAGGCT'
p7320
(lp7321
I7016
aI9297
asS'ACGGAT'
p7322
(lp7323
I382
aI8941
asS'CGGAGA'
p7324
(lp7325
I2672
aI3576
aI6144
aI8897
asS'CGGAGC'
p7326
(lp7327
I2604
asS'TTATGT'
p7328
(lp7329
I8063
asS'CAGGCC'
p7330
(lp7331
I5746
aI6250
aI7328
asS'CGGAGG'
p7332
(lp7333
I2580
aI3018
aI7732
asS'ATGGAA'
p7334
(lp7335
I3122
aI4117
aI8865
asS'ATGGAG'
p7336
(lp7337
I1256
aI1267
asS'CGCTTG'
p7338
(lp7339
I6266
aI7344
aI7463
asS'CGCTTA'
p7340
(lp7341
I3614
aI8060
aI9285
asS'CGCTTC'
p7342
(lp7343
I3130
aI3234
aI5866
asS'TGAACA'
p7344
(lp7345
I3746
asS'ATGGAT'
p7346
(lp7347
I5280
aI9443
aI9487
asS'TGCGGC'
p7348
(lp7349
I1199
aI2395
asS'CAAGCC'
p7350
(lp7351
I138
aI2253
aI4239
asS'TGCGGA'
p7352
(lp7353
I513
aI885
aI2602
asS'GAAAAG'
p7354
(lp7355
I3633
asS'GAAAAC'
p7356
(lp7357
I1218
aI6210
aI6957
asS'CAAGCA'
p7358
(lp7359
I2609
asS'GAAAAA'
p7360
(lp7361
I3289
aI4712
aI4992
aI5063
aI6220
aI6840
aI8382
asS'TAAGTA'
p7362
(lp7363
I975
asS'ACGGTT'
p7364
(lp7365
I7120
asS'GAAAAT'
p7366
(lp7367
I1689
aI5276
asS'ACAAGG'
p7368
(lp7369
I2219
aI4429
aI6226
aI7918
asS'ACAAGA'
p7370
(lp7371
I6733
aI7107
asS'ACAAGC'
p7372
(lp7373
I3749
aI4238
aI5311
aI5690
asS'ACACGT'
p7374
(lp7375
I2804
aI2999
aI8459
aI9389
asS'CTGCGT'
p7376
(lp7377
I1231
aI8126
asS'GCGGAG'
p7378
(lp7379
I2603
aI5120
aI8896
asS'CATAAG'
p7380
(lp7381
I7369
asS'GCGGAA'
p7382
(lp7383
I1114
aI2366
aI8535
asS'CATAAA'
p7384
(lp7385
I2816
aI2978
aI3824
aI4344
asS'GCGGAC'
p7386
(lp7387
I514
aI886
aI1092
aI8388
aI9397
asS'CATAAC'
p7388
(lp7389
I669
aI3835
asS'ACAAGT'
p7390
(lp7391
I1222
aI1879
aI5919
aI8645
aI9157
asS'ACACGA'
p7392
(lp7393
I1096
aI2154
asS'ACACGG'
p7394
(lp7395
I2045
aI3710
aI4928
aI7729
aI8134
asS'CATAAT'
p7396
(lp7397
I7573
asS'GCGGAT'
p7398
(lp7399
I1203
aI4128
asS'GTCCCC'
p7400
(lp7401
I1077
aI2797
aI3154
aI4073
aI4673
aI6855
asS'CTGCGA'
p7402
(lp7403
I425
aI7052
asS'GTCCCG'
p7404
(lp7405
I1377
aI2188
asS'CGGCAA'
p7406
(lp7407
I1934
aI3117
aI8854
asS'CGGCAC'
p7408
(lp7409
I3239
asS'CCTCCT'
p7410
(lp7411
I1855
aI8914
aI9203
asS'TGTTGA'
p7412
(lp7413
I7797
aI8709
asS'CGGCAT'
p7414
(lp7415
I7548
asS'CCTCCC'
p7416
(lp7417
I4727
aI8922
asS'CCTCCG'
p7418
(lp7419
I1043
aI2774
aI6262
asS'CGTGAT'
p7420
(lp7421
I7580
as.